(dp0
S'pagerank'
p1
(lp2
I25
aI26
aI27
aI17
aI22
aI31
aI1
aI7
aI6
aI9
aI13
aI57
aI32
aI49
aI46
aI51
aI60
aI56
aI5
aI53
aI41
aI61
aI54
asS'hkpr_apprx'
p3
(lp4
I26
aI27
aI17
aI25
aI31
aI19
aI1
aI22
aI41
aI54
aI7
aI9
aI13
aI56
aI5
aI6
aI57
aI32
aI30
aI48
asS'hkpr_exact'
p5
(lp6
I60
aI32
aI9
aI31
aI41
aI56
aI13
aI17
aI22
aI54
aI5
aI6
aI26
aI47
aI2
aI25
aI28
aI30
aI39
aI48
aI57
aI7
aI27
aI1
as.