(dp0
S'pagerank'
p1
(lp2
V179
p3
aV3856
p4
aV11
p5
aV1558
p6
aV3879
p7
aV1071
p8
aV4005
p9
aV182
p10
aV1034
p11
aV336
p12
aV3037
p13
aV253
p14
aV1362
p15
aV202
p16
aV3588
p17
aV1797
p18
aV735
p19
aV2015
p20
aV3305
p21
aV3694
p22
aV3044
p23
aV3859
p24
aV3447
p25
aV2774
p26
aV3270
p27
aV3904
p28
aV549
p29
aV3864
p30
aV3322
p31
aV259
p32
aV54
p33
aV3308
p34
aV78
p35
aV2790
p36
aV1562
p37
aV3880
p38
aV2
p39
aV2826
p40
aV2301
p41
aV3088
p42
aV3092
p43
aV3367
p44
aV1094
p45
aV3817
p46
aV729
p47
aV3630
p48
aV2070
p49
aV2114
p50
aV3883
p51
aV3562
p52
aV227
p53
aV3524
p54
aV284
p55
aV3093
p56
aV3374
p57
aV2503
p58
aV130
p59
aV508
p60
aV737
p61
aV3312
p62
aV3373
p63
aV779
p64
aV2534
p65
aV518
p66
aV1328
p67
aV3318
p68
aV3896
p69
aV1418
p70
aV1363
p71
aV2570
p72
aV303
p73
aV1484
p74
aV2146
p75
aV3211
p76
aV2023
p77
aV3590
p78
aV2784
p79
aV1568
p80
aV2836
p81
aV13
p82
aV2841
p83
aV1265
p84
aV3377
p85
aV2393
p86
aV2228
p87
aV829
p88
aV3304
p89
aV3023
p90
aV3303
p91
aV479
p92
aV2585
p93
aV3296
p94
aV3097
p95
aV1770
p96
aV2330
p97
aV3288
p98
aV1569
p99
aV98
p100
aV2004
p101
aV3047
p102
aV2031
p103
aV1981
p104
aV2284
p105
aV2773
p106
aV1772
p107
aV3146
p108
aV514
p109
aV1951
p110
aV2781
p111
aV2603
p112
aV3360
p113
aV2827
p114
aV1070
p115
aV828
p116
aV2589
p117
aV3033
p118
aV1573
p119
aV3035
p120
aV2588
p121
aV2778
p122
aV3026
p123
aV2026
p124
aV1643
p125
aV2332
p126
aV1789
p127
aV2631
p128
aV2418
p129
aV2300
p130
aV2302
p131
aV2334
p132
aV2084
p133
aV1331
p134
aV2083
p135
aV1557
p136
aV1813
p137
aV2289
p138
aV2074
p139
aV2033
p140
aV2526
p141
aV483
p142
aV2266
p143
aV2842
p144
aV35
p145
aV1854
p146
aV790
p147
aV832
p148
aV229
p149
aV1240
p150
aV733
p151
aV702
p152
aV3647
p153
aV1301
p154
aV2528
p155
aV279
p156
aV1096
p157
aV2269
p158
aV3863
p159
aV3592
p160
aV1814
p161
aV3045
p162
aV886
p163
aV3587
p164
aV3589
p165
aV3024
p166
aV2838
p167
aV302
p168
aV835
p169
aV794
p170
aV3359
p171
aV3881
p172
aV3242
p173
aV1364
p174
aV3581
p175
aV1419
p176
aV2531
p177
aV1306
p178
aV787
p179
aV254
p180
aV786
p181
aV1097
p182
aV772
p183
aV2529
p184
aV1987
p185
aV2366
p186
aV2587
p187
aV3369
p188
aV1307
p189
aV2296
p190
aV3586
p191
aV3611
p192
aV3629
p193
aV3020
p194
aV1542
p195
aV2092
p196
aV1099
p197
aV1336
p198
aV1033
p199
aV1807
p200
aV3018
p201
aV507
p202
aV503
p203
aV3084
p204
aV506
p205
aV3606
p206
aV3605
p207
aV2620
p208
aV1084
p209
aV1998
p210
aV3854
p211
aV1330
p212
aV2351
p213
aV3645
p214
aV795
p215
aV1546
p216
aV2028
p217
aV1079
p218
aV1816
p219
aV2828
p220
aV785
p221
aV233
p222
aV2590
p223
aV305
p224
aV234
p225
aV1793
p226
aV2541
p227
aV52
p228
aV1031
p229
aV3272
p230
aV480
p231
aV1791
p232
aV23
p233
aV3021
p234
aV2823
p235
aV2595
p236
aV478
p237
aV1564
p238
aV1051
p239
aV2788
p240
aV554
p241
aV3867
p242
aV136
p243
aV3882
p244
aV386
p245
aV8
p246
aV2540
p247
aV2094
p248
aV2034
p249
aV1599
p250
aV1777
p251
aV83
p252
aV3043
p253
aV2037
p254
aV3309
p255
aV3650
p256
aV4015
p257
aV1145
p258
aV209
p259
aV3031
p260
aV1560
p261
aV2542
p262
aV437
p263
aV3120
p264
aV738
p265
aV3294
p266
aV1856
p267
aV3910
p268
aV2025
p269
aV1083
p270
aV557
p271
aV2175
p272
aV3626
p273
aV3607
p274
aV2789
p275
aV776
p276
aV2035
p277
aV1303
p278
aV3128
p279
aV2824
p280
aV2544
p281
aV1853
p282
aV1095
p283
aV732
p284
aV3855
p285
aV477
p286
aV799
p287
aV798
p288
aV33
p289
aV3125
p290
aV160
p291
aV3922
p292
aV1340
p293
aV3609
p294
aV1605
p295
aV24
p296
aV2786
p297
aV3361
p298
aV2290
p299
aV1302
p300
aV3095
p301
aV2545
p302
aV2779
p303
aV1819
p304
aV16
p305
aV3326
p306
aV103
p307
aV830
p308
aV359
p309
aV2530
p310
aV2158
p311
aV1073
p312
aV278
p313
aV2349
p314
aV3327
p315
aV899
p316
aV3375
p317
aV3413
p318
aV155
p319
aV656
p320
aV1027
p321
aV157
p322
aV3928
p323
aV3691
p324
aV3040
p325
aV3608
p326
aV793
p327
aV516
p328
aV2260
p329
aV482
p330
aV3004
p331
aV1226
p332
aV3622
p333
aV20
p334
aV2868
p335
aV1543
p336
aV3039
p337
aV1577
p338
aV782
p339
aV1098
p340
aV392
p341
aV1774
p342
aV2832
p343
aV3087
p344
aV3046
p345
aV1343
p346
aV3013
p347
aV3293
p348
aV3897
p349
aV3121
p350
aV788
p351
aV1831
p352
aV519
p353
aV3014
p354
aV3224
p355
aV39
p356
aV486
p357
aV3050
p358
aV1068
p359
aV3080
p360
aV976
p361
aV1601
p362
aV2075
p363
aV2027
p364
aV1858
p365
aV2036
p366
aV3805
p367
aV3227
p368
aV1776
p369
aV110
p370
aV3925
p371
aV283
p372
aV1346
p373
aV2003
p374
aV1076
p375
aV548
p376
aV3625
p377
aV3289
p378
aV2000
p379
aV308
p380
aV3555
p381
aV3212
p382
aV3640
p383
aV879
p384
aV2776
p385
aV3091
p386
aV1792
p387
aV390
p388
aV3370
p389
aV365
p390
aV3086
p391
aV1360
p392
aV3399
p393
aV1081
p394
aV1102
p395
aV2830
p396
aV1778
p397
aV1548
p398
aV361
p399
aV3313
p400
aV3927
p401
aV3025
p402
aV3005
p403
aV3317
p404
aV3094
p405
aV3323
p406
aV3372
p407
aV3652
p408
aV871
p409
aV51
p410
aV874
p411
aV3771
p412
aV3923
p413
aV2227
p414
aV791
p415
aV1812
p416
aV2835
p417
aV3285
p418
aV2343
p419
aV3324
p420
aV1103
p421
aV3030
p422
aV3901
p423
aV3266
p424
aV3428
p425
aV2421
p426
aV3376
p427
aV3585
p428
aV1775
p429
aV1358
p430
aV3016
p431
aV1794
p432
aV1026
p433
aV1818
p434
aV367
p435
aV1570
p436
aV3439
p437
aV2834
p438
aV885
p439
aV3368
p440
aV3427
p441
aV3580
p442
aV230
p443
aV337
p444
aV2077
p445
aV3295
p446
aV1333
p447
aV1335
p448
aV3884
p449
aV3425
p450
aV433
p451
aV979
p452
aV3015
p453
aV3641
p454
aV146
p455
aV181
p456
aV3083
p457
aV1342
p458
aV309
p459
aV983
p460
aV3331
p461
aV3036
p462
aV502
p463
aV140
p464
aV3621
p465
aV3857
p466
aV3012
p467
aV1030
p468
aV2265
p469
aV1563
p470
aV1483
p471
aV3085
p472
aV520
p473
aV156
p474
aV1244
p475
aV65
p476
aV2791
p477
aV198
p478
aV3028
p479
aV1602
p480
aV1108
p481
aV3644
p482
aV108
p483
aV2710
p484
aV789
p485
aV3593
p486
aV1576
p487
aV2165
p488
aV1359
p489
aV1603
p490
aV1150
p491
aV3315
p492
aV1143
p493
aV1808
p494
aV3624
p495
aV1604
p496
aV2270
p497
aV1077
p498
aV1544
p499
aV833
p500
aV3975
p501
aV3371
p502
aV1817
p503
aV831
p504
aV730
p505
aV3610
p506
aV3929
p507
aV509
p508
aV2538
p509
aV3920
p510
aV187
p511
aV3314
p512
aV3898
p513
aV2305
p514
aV778
p515
aV3299
p516
aV517
p517
aV3646
p518
aV2076
p519
aV2605
p520
aV1795
p521
aV2831
p522
aV3913
p523
aV3903
p524
aV777
p525
aV133
p526
aV783
p527
aV3972
p528
aV3328
p529
aV3414
p530
aV1809
p531
aV2304
p532
aV3623
p533
aV3627
p534
aV3325
p535
aV3862
p536
aV2572
p537
aV134
p538
aV3591
p539
aV3307
p540
aV1066
p541
aV1338
p542
aV1849
p543
aV3103
p544
aV1771
p545
aV3500
p546
aV2825
p547
aV2577
p548
aV3042
p549
aV115
p550
aV1069
p551
aV1400
p552
aV48
p553
aV204
p554
aV3306
p555
aV1779
p556
aV734
p557
aV3628
p558
aV2089
p559
aV3642
p560
aV2295
p561
aV792
p562
aV80
p563
aV2777
p564
aV2267
p565
aV3643
p566
aV2286
p567
aV1815
p568
aV1704
p569
aV3943
p570
aV583
p571
aV1561
p572
aV2586
p573
aV1743
p574
aV1072
p575
aV731
p576
aV3319
p577
aV185
p578
aV1064
p579
aV481
p580
aV3041
p581
aV2775
p582
aV488
p583
aV2342
p584
aV2350
p585
aV2829
p586
aV3275
p587
aV2843
p588
aV1025
p589
aV512
p590
aV2303
p591
aV2087
p592
aV2571
p593
aV3921
p594
aV2593
p595
aV1300
p596
aV1606
p597
aV1357
p598
aV3858
p599
aV3826
p600
aV1806
p601
aV2840
p602
aV1999
p603
aV780
p604
aV2029
p605
aV2440
p606
aV3100
p607
aV2091
p608
aV3900
p609
aV2329
p610
aV3129
p611
aV2274
p612
aV2592
p613
aV773
p614
aV1337
p615
aV1975
p616
aV3860
p617
aV2236
p618
aV1790
p619
aV388
p620
aV1304
p621
aV2138
p622
aV3316
p623
aV355
p624
aV1903
p625
aV3301
p626
aV3924
p627
aV3902
p628
aV3011
p629
aV2225
p630
aV1332
p631
aV332
p632
aV3926
p633
aV504
p634
aV834
p635
aV3034
p636
aV1572
p637
aV1565
p638
aV2785
p639
aV2576
p640
aV3298
p641
aV827
p642
aV3365
p643
aV3930
p644
aV3672
p645
aV3364
p646
aV1549
p647
aV2787
p648
aV2022
p649
aV3501
p650
aV2226
p651
aV3089
p652
aV781
p653
aV2024
p654
aV2331
p655
aV694
p656
aV2285
p657
aV304
p658
aV2088
p659
aV2602
p660
aV1983
p661
aV1082
p662
aV200
p663
aV436
p664
aV2001
p665
aV1571
p666
aV1080
p667
aV1413
p668
aV515
p669
aV3366
p670
aV1811
p671
aV2536
p672
aV3297
p673
aV3108
p674
aV1074
p675
aV1487
p676
aV3027
p677
aV1028
p678
aV1574
p679
aV3302
p680
aV26
p681
aV2287
p682
aV3119
p683
aV3321
p684
aV2396
p685
aV1644
p686
aV3017
p687
aV1796
p688
aV1857
p689
aV2264
p690
aV3362
p691
aV3096
p692
aV67
p693
aV1067
p694
aV2144
p695
aV1737
p696
aV1029
p697
aV1032
p698
aV3022
p699
aV1075
p700
aV2833
p701
aV2002
p702
aV2750
p703
aV3038
p704
aV2516
p705
aV513
p706
aV2755
p707
aV1344
p708
aV3330
p709
aV1242
p710
aV2537
p711
aV363
p712
aV2591
p713
aV1345
p714
aV2475
p715
aV2782
p716
aV2533
p717
aV1334
p718
aV1810
p719
aV1305
p720
aV3090
p721
aV2039
p722
aV3320
p723
aV2306
p724
aV2617
p725
aV1600
p726
aV2344
p727
aV475
p728
aV1547
p729
aV2071
p730
aV1341
p731
aV2149
p732
aV2072
p733
aV2261
p734
aV2268
p735
aV3363
p736
aV1329
p737
aV2839
p738
aV1361
p739
aV2573
p740
aV2095
p741
aV2299
p742
aV2005
p743
aV2020
p744
aV2328
p745
aV2081
p746
aV1391
p747
aV2093
p748
aV2139
p749
aV1078
p750
aV1559
p751
aV2030
p752
aV2090
p753
aV2073
p754
aV2142
p755
aV1985
p756
aV0
p757
aV107
p758
aV3389
p759
aV215
p760
aV2596
p761
aV721
p762
aV613
p763
aV3709
p764
aV3746
p765
aV638
p766
aV692
p767
aV3230
p768
aV358
p769
aV1091
p770
aV3853
p771
aV4012
p772
aV668
p773
aV335
p774
aV699
p775
aV3071
p776
aV1466
p777
aV624
p778
aV1386
p779
aV114
p780
aV2857
p781
aV3820
p782
aV1233
p783
aV12
p784
aV4024
p785
aV205
p786
aV911
p787
aV292
p788
aV37
p789
aV3570
p790
aV3575
p791
aV2975
p792
aV244
p793
aV4010
p794
aV841
p795
aV3974
p796
aV15
p797
aV3282
p798
aV447
p799
aV875
p800
aV3453
p801
aV918
p802
aV1967
p803
aV3748
p804
aV2971
p805
aV1395
p806
aV2106
p807
aV775
p808
aV608
p809
aV883
p810
aV2798
p811
aV2079
p812
aV228
p813
aV3183
p814
aV2195
p815
aV256
p816
aV607
p817
aV1206
p818
aV3954
p819
aV4032
p820
aV4028
p821
aV2262
p822
aV2442
p823
aV550
p824
aV166
p825
aV801
p826
aV499
p827
aV186
p828
aV4022
p829
aV2382
p830
aV4029
p831
aV1326
p832
aV3732
p833
aV411
p834
aV3999
p835
aV216
p836
aV377
p837
aV210
p838
aV183
p839
aV860
p840
aV2457
p841
aV1353
p842
aV585
p843
aV443
p844
aV71
p845
aV2691
p846
aV1276
p847
aV287
p848
aV3188
p849
aV153
p850
aV3942
p851
aV4036
p852
aV3688
p853
aV3729
p854
aV1690
p855
aV4008
p856
aV43
p857
aV3996
p858
aV2808
p859
aV356
p860
aV581
p861
aV401
p862
aV572
p863
aV1581
p864
aV749
p865
aV3952
p866
aV744
p867
aV4035
p868
aV379
p869
aV190
p870
aV282
p871
aV3704
p872
aV1510
p873
aV859
p874
aV42
p875
aV97
p876
aV3006
p877
aV384
p878
aV1119
p879
aV3003
p880
aV855
p881
aV454
p882
aV674
p883
aV1834
p884
aV191
p885
aV321
p886
aV255
p887
aV3765
p888
aV293
p889
aV117
p890
aV1383
p891
aV602
p892
aV4006
p893
aV112
p894
aV2230
p895
aV267
p896
aV1430
p897
aV3451
p898
aV1224
p899
aV2441
p900
aV996
p901
aV3407
p902
aV174
p903
aV3808
p904
aV464
p905
aV846
p906
aV3673
p907
aV307
p908
aV3537
p909
aV3989
p910
aV852
p911
aV164
p912
aV1354
p913
aV3560
p914
aV1176
p915
aV865
p916
aV891
p917
aV468
p918
aV3893
p919
aV2245
p920
aV1489
p921
aV3885
p922
aV3678
p923
aV1253
p924
aV485
p925
aV453
p926
aV245
p927
aV289
p928
aV1133
p929
aV3457
p930
aV74
p931
aV2792
p932
aV4033
p933
aV1657
p934
aV3798
p935
aV648
p936
aV3807
p937
aV2922
p938
aV3992
p939
aV3965
p940
aV2168
p941
aV47
p942
aV2422
p943
aV3987
p944
aV3597
p945
aV2527
p946
aV2704
p947
aV3984
p948
aV371
p949
aV873
p950
aV987
p951
aV974
p952
aV385
p953
aV3959
p954
aV1252
p955
aV854
p956
aV802
p957
aV3801
p958
aV294
p959
aV201
p960
aV247
p961
aV884
p962
aV877
p963
aV2884
p964
aV219
p965
aV1937
p966
aV3653
p967
aV1755
p968
aV851
p969
aV90
p970
aV893
p971
aV3565
p972
aV532
p973
aV383
p974
aV218
p975
aV2580
p976
aV3887
p977
aV1208
p978
aV86
p979
aV2714
p980
aV3676
p981
aV2817
p982
aV3816
p983
aV1414
p984
aV1417
p985
aV125
p986
aV1890
p987
aV2952
p988
aV2204
p989
aV3310
p990
aV2100
p991
aV4025
p992
aV2178
p993
aV894
p994
aV2860
p995
aV3502
p996
aV3963
p997
aV4002
p998
aV2651
p999
aV4034
p1000
aV3159
p1001
aV3444
p1002
aV3686
p1003
aV263
p1004
aV311
p1005
aV3941
p1006
aV923
p1007
aV34
p1008
aV138
p1009
aV872
p1010
aV2903
p1011
aV4001
p1012
aV1670
p1013
aV1263
p1014
aV4027
p1015
aV3939
p1016
aV207
p1017
aV1486
p1018
aV3955
p1019
aV3467
p1020
aV2878
p1021
aV301
p1022
aV3445
p1023
aV3770
p1024
aV882
p1025
aV32
p1026
aV70
p1027
aV1262
p1028
aV2898
p1029
aV1055
p1030
aV1949
p1031
aV300
p1032
aV3398
p1033
aV717
p1034
aV1701
p1035
aV102
p1036
aV3059
p1037
aV258
p1038
aV673
p1039
aV1476
p1040
aV3991
p1041
aV147
p1042
aV3441
p1043
aV3875
p1044
aV867
p1045
aV1403
p1046
aV1607
p1047
aV76
p1048
aV347
p1049
aV4007
p1050
aV1038
p1051
aV1254
p1052
aV3127
p1053
aV154
p1054
aV1521
p1055
aV3679
p1056
aV904
p1057
aV3638
p1058
aV2725
p1059
aV1477
p1060
aV2692
p1061
aV892
p1062
aV3105
p1063
aV27
p1064
aV49
p1065
aV3290
p1066
aV808
p1067
aV3932
p1068
aV333
p1069
aV1586
p1070
aV4026
p1071
aV2505
p1072
aV2431
p1073
aV858
p1074
aV193
p1075
aV1468
p1076
aV610
p1077
aV3717
p1078
aV95
p1079
aV3700
p1080
aV1974
p1081
aV3935
p1082
aV351
p1083
aV3424
p1084
aV1194
p1085
aV1295
p1086
aV316
p1087
aV3823
p1088
aV1651
p1089
aV725
p1090
aV3582
p1091
aV929
p1092
aV2470
p1093
aV646
p1094
aV61
p1095
aV3733
p1096
aV3544
p1097
aV714
p1098
aV3494
p1099
aV441
p1100
aV1020
p1101
aV268
p1102
aV3405
p1103
aV571
p1104
aV3074
p1105
aV3134
p1106
aV448
p1107
aV296
p1108
aV821
p1109
aV3708
p1110
aV2380
p1111
aV240
p1112
aV269
p1113
aV1147
p1114
aV910
p1115
aV1270
p1116
aV4003
p1117
aV501
p1118
aV1933
p1119
aV60
p1120
aV1057
p1121
aV1162
p1122
aV3994
p1123
aV1046
p1124
aV1193
p1125
aV816
p1126
aV1251
p1127
aV3530
p1128
aV3269
p1129
aV587
p1130
aV1924
p1131
aV3661
p1132
aV655
p1133
aV672
p1134
aV273
p1135
aV3689
p1136
aV2930
p1137
aV2876
p1138
aV3429
p1139
aV900
p1140
aV2972
p1141
aV3660
p1142
aV3147
p1143
aV1266
p1144
aV3682
p1145
aV220
p1146
aV564
p1147
aV192
p1148
aV813
p1149
aV629
p1150
aV144
p1151
aV1640
p1152
aV3846
p1153
aV44
p1154
aV3724
p1155
aV1461
p1156
aV3848
p1157
aV3619
p1158
aV3961
p1159
aV3795
p1160
aV165
p1161
aV3988
p1162
aV459
p1163
aV1442
p1164
aV1016
p1165
aV3432
p1166
aV3520
p1167
aV124
p1168
aV91
p1169
aV4018
p1170
aV888
p1171
aV2721
p1172
aV250
p1173
aV2321
p1174
aV393
p1175
aV3271
p1176
aV3338
p1177
aV2811
p1178
aV704
p1179
aV3055
p1180
aV167
p1181
aV586
p1182
aV652
p1183
aV3787
p1184
aV2517
p1185
aV46
p1186
aV2017
p1187
aV126
p1188
aV406
p1189
aV4016
p1190
aV3727
p1191
aV3978
p1192
aV594
p1193
aV757
p1194
aV2481
p1195
aV866
p1196
aV1956
p1197
aV262
p1198
aV2963
p1199
aV3513
p1200
aV3844
p1201
aV116
p1202
aV2080
p1203
aV2855
p1204
aV6
p1205
aV2696
p1206
aV127
p1207
aV937
p1208
aV2736
p1209
aV2320
p1210
aV2861
p1211
aV467
p1212
aV945
p1213
aV129
p1214
aV881
p1215
aV2766
p1216
aV2514
p1217
aV3292
p1218
aV3657
p1219
aV2402
p1220
aV3813
p1221
aV584
p1222
aV540
p1223
aV145
p1224
aV767
p1225
aV3970
p1226
aV3832
p1227
aV1297
p1228
aV3990
p1229
aV3754
p1230
aV1043
p1231
aV241
p1232
aV3876
p1233
aV657
p1234
aV28
p1235
aV1178
p1236
aV3665
p1237
aV1203
p1238
aV96
p1239
aV3598
p1240
aV2105
p1241
aV1260
p1242
aV3492
p1243
aV811
p1244
aV4020
p1245
aV38
p1246
aV2671
p1247
aV3254
p1248
aV1969
p1249
aV868
p1250
aV2565
p1251
aV3977
p1252
aV700
p1253
aV2938
p1254
aV120
p1255
aV3843
p1256
aV1865
p1257
aV472
p1258
aV1654
p1259
aV2752
p1260
aV1168
p1261
aV295
p1262
aV2981
p1263
aV895
p1264
aV2483
p1265
aV642
p1266
aV1411
p1267
aV3614
p1268
aV3944
p1269
aV1697
p1270
aV3796
p1271
aV405
p1272
aV2548
p1273
aV3681
p1274
aV1463
p1275
aV3512
p1276
aV449
p1277
aV2699
p1278
aV3783
p1279
aV682
p1280
aV3600
p1281
aV707
p1282
aV3834
p1283
aV956
p1284
aV3181
p1285
aV593
p1286
aV2895
p1287
aV612
p1288
aV272
p1289
aV907
p1290
aV476
p1291
aV3985
p1292
aV2822
p1293
aV1434
p1294
aV286
p1295
aV691
p1296
aV3936
p1297
aV3774
p1298
aV1830
p1299
aV1627
p1300
aV58
p1301
aV1268
p1302
aV533
p1303
aV3723
p1304
aV869
p1305
aV319
p1306
aV1552
p1307
aV679
p1308
aV64
p1309
aV3461
p1310
aV1915
p1311
aV2167
p1312
aV1913
p1313
aV935
p1314
aV2014
p1315
aV3675
p1316
aV63
p1317
aV2388
p1318
aV1696
p1319
aV3532
p1320
aV887
p1321
aV3200
p1322
aV1151
p1323
aV3155
p1324
aV3061
p1325
aV1579
p1326
aV633
p1327
aV763
p1328
aV243
p1329
aV3742
p1330
aV69
p1331
aV1394
p1332
aV825
p1333
aV2771
p1334
aV861
p1335
aV3190
p1336
aV3814
p1337
aV661
p1338
aV3983
p1339
aV1710
p1340
aV410
p1341
aV152
p1342
aV2814
p1343
aV1385
p1344
aV3666
p1345
aV3811
p1346
aV3755
p1347
aV3658
p1348
aV1713
p1349
aV2113
p1350
aV1445
p1351
aV2263
p1352
aV2453
p1353
aV748
p1354
aV3940
p1355
aV3870
p1356
aV81
p1357
aV1494
p1358
aV3251
p1359
aV22
p1360
aV3099
p1361
aV382
p1362
aV3669
p1363
aV3888
p1364
aV4009
p1365
aV909
p1366
aV2632
p1367
aV3543
p1368
aV3440
p1369
aV1065
p1370
aV2837
p1371
aV4013
p1372
aV3058
p1373
aV18
p1374
aV759
p1375
aV3726
p1376
aV2456
p1377
aV3048
p1378
aV3767
p1379
aV3659
p1380
aV639
p1381
aV1050
p1382
aV3839
p1383
aV1387
p1384
aV3141
p1385
aV796
p1386
aV10
p1387
aV3235
p1388
aV541
p1389
aV1
p1390
aV2041
p1391
aV3789
p1392
aV2130
p1393
aV912
p1394
aV3649
p1395
aV50
p1396
aV1384
p1397
aV3536
p1398
aV562
p1399
aV1745
p1400
aV2885
p1401
aV3878
p1402
aV3716
p1403
aV2882
p1404
aV1978
p1405
aV3459
p1406
aV3208
p1407
aV3493
p1408
aV822
p1409
aV3349
p1410
aV3334
p1411
aV3594
p1412
aV1950
p1413
aV1144
p1414
aV3164
p1415
aV3749
p1416
aV2452
p1417
aV1220
p1418
aV237
p1419
aV1171
p1420
aV3763
p1421
aV1506
p1422
aV710
p1423
aV574
p1424
aV3153
p1425
aV1424
p1426
aV162
p1427
aV1061
p1428
aV3161
p1429
aV2493
p1430
aV3551
p1431
aV3662
p1432
aV3477
p1433
aV1756
p1434
aV590
p1435
aV3487
p1436
aV712
p1437
aV143
p1438
aV2013
p1439
aV3566
p1440
aV2119
p1441
aV1838
p1442
aV2722
p1443
aV2170
p1444
aV1294
p1445
aV1874
p1446
aV2051
p1447
aV3504
p1448
aV2490
p1449
aV2821
p1450
aV106
p1451
aV1908
p1452
aV3574
p1453
aV413
p1454
aV3908
p1455
aV3637
p1456
aV750
p1457
aV529
p1458
aV1239
p1459
aV306
p1460
aV3109
p1461
aV3300
p1462
aV3552
p1463
aV2634
p1464
aV1368
p1465
aV2044
p1466
aV3354
p1467
aV3744
p1468
aV3189
p1469
aV466
p1470
aV3958
p1471
aV3778
p1472
aV671
p1473
aV1005
p1474
aV362
p1475
aV327
p1476
aV3751
p1477
aV649
p1478
aV14
p1479
aV1022
p1480
aV1058
p1481
aV344
p1482
aV505
p1483
aV3388
p1484
aV2185
p1485
aV235
p1486
aV2891
p1487
aV2281
p1488
aV2947
p1489
aV2454
p1490
aV217
p1491
aV206
p1492
aV552
p1493
aV2360
p1494
aV3217
p1495
aV3133
p1496
aV462
p1497
aV623
p1498
aV470
p1499
aV3911
p1500
aV3827
p1501
aV3671
p1502
aV3917
p1503
aV3849
p1504
aV2954
p1505
aV3703
p1506
aV2695
p1507
aV689
p1508
aV224
p1509
aV3840
p1510
aV1152
p1511
aV4000
p1512
aV429
p1513
aV2569
p1514
aV2886
p1515
aV121
p1516
aV1200
p1517
aV2990
p1518
aV2012
p1519
aV1422
p1520
aV870
p1521
aV173
p1522
aV3931
p1523
aV2383
p1524
aV1889
p1525
aV3946
p1526
aV270
p1527
aV3772
p1528
aV761
p1529
aV3443
p1530
aV2845
p1531
aV3143
p1532
aV1371
p1533
aV1633
p1534
aV3715
p1535
aV5
p1536
aV1840
p1537
aV1474
p1538
aV3762
p1539
aV310
p1540
aV958
p1541
aV17
p1542
aV2847
p1543
aV2799
p1544
aV3340
p1545
aV850
p1546
aV264
p1547
aV3522
p1548
aV2466
p1549
aV1023
p1550
aV3892
p1551
aV1631
p1552
aV3194
p1553
aV3081
p1554
aV2358
p1555
aV171
p1556
aV1138
p1557
aV330
p1558
aV1592
p1559
aV815
p1560
aV690
p1561
aV1928
p1562
aV1087
p1563
aV1748
p1564
aV1930
p1565
aV880
p1566
aV1053
p1567
aV991
p1568
aV1829
p1569
aV2709
p1570
aV3847
p1571
aV3333
p1572
aV338
p1573
aV1105
p1574
aV328
p1575
aV943
p1576
aV3595
p1577
aV131
p1578
aV1531
p1579
aV1759
p1580
aV2682
p1581
aV2312
p1582
aV2670
p1583
aV2926
p1584
aV452
p1585
aV84
p1586
aV658
p1587
aV723
p1588
aV3479
p1589
aV2744
p1590
aV3268
p1591
aV77
p1592
aV3579
p1593
aV2621
p1594
aV2998
p1595
aV2255
p1596
aV755
p1597
aV3890
p1598
aV528
p1599
aV890
p1600
aV1433
p1601
aV1936
p1602
aV2703
p1603
aV3714
p1604
aV2933
p1605
aV3792
p1606
aV643
p1607
aV1127
p1608
aV111
p1609
aV2522
p1610
aV998
p1611
aV59
p1612
aV2614
p1613
aV743
p1614
aV2238
p1615
aV2934
p1616
aV675
p1617
aV2746
p1618
aV1541
p1619
aV2923
p1620
aV1646
p1621
aV3218
p1622
aV812
p1623
aV2693
p1624
aV257
p1625
aV970
p1626
aV2373
p1627
aV3464
p1628
aV1478
p1629
aV1492
p1630
aV3667
p1631
aV2900
p1632
aV2497
p1633
aV208
p1634
aV3775
p1635
aV2599
p1636
aV920
p1637
aV3982
p1638
aV2050
p1639
aV2316
p1640
aV2439
p1641
aV380
p1642
aV3175
p1643
aV2515
p1644
aV3497
p1645
aV1784
p1646
aV857
p1647
aV340
p1648
aV3670
p1649
aV1977
p1650
aV837
p1651
aV3221
p1652
aV818
p1653
aV1705
p1654
aV1093
p1655
aV3583
p1656
aV2416
p1657
aV3409
p1658
aV3819
p1659
aV985
p1660
aV3736
p1661
aV1197
p1662
aV2613
p1663
aV3418
p1664
aV3408
p1665
aV3255
p1666
aV1674
p1667
aV973
p1668
aV3489
p1669
aV961
p1670
aV139
p1671
aV2432
p1672
aV2987
p1673
aV3343
p1674
aV1382
p1675
aV634
p1676
aV1769
p1677
aV2899
p1678
aV3484
p1679
aV3785
p1680
aV3664
p1681
aV3914
p1682
aV281
p1683
aV569
p1684
aV1007
p1685
aV2166
p1686
aV1415
p1687
aV3547
p1688
aV189
p1689
aV2181
p1690
aV676
p1691
aV3712
p1692
aV1996
p1693
aV2008
p1694
aV2852
p1695
aV3507
p1696
aV3761
p1697
aV2997
p1698
aV3222
p1699
aV3533
p1700
aV396
p1701
aV2965
p1702
aV3458
p1703
aV2424
p1704
aV950
p1705
aV2980
p1706
aV771
p1707
aV3836
p1708
aV426
p1709
aV3934
p1710
aV722
p1711
aV3205
p1712
aV2801
p1713
aV158
p1714
aV93
p1715
aV2745
p1716
aV1664
p1717
aV3886
p1718
aV163
p1719
aV3454
p1720
aV756
p1721
aV1870
p1722
aV2065
p1723
aV318
p1724
aV685
p1725
aV226
p1726
aV2048
p1727
aV3905
p1728
aV521
p1729
aV1247
p1730
aV1629
p1731
aV1518
p1732
aV3685
p1733
aV1537
p1734
aV3809
p1735
aV2949
p1736
aV3180
p1737
aV4030
p1738
aV1490
p1739
aV836
p1740
aV3535
p1741
aV3517
p1742
aV1212
p1743
aV878
p1744
aV4038
p1745
aV1855
p1746
aV2917
p1747
aV2740
p1748
aV2277
p1749
aV3539
p1750
aV298
p1751
aV3696
p1752
aV1534
p1753
aV3993
p1754
aV839
p1755
aV3852
p1756
aV4021
p1757
aV2783
p1758
aV177
p1759
aV2249
p1760
aV3126
p1761
aV838
p1762
aV3651
p1763
aV88
p1764
aV1111
p1765
aV605
p1766
aV435
p1767
aV2731
p1768
aV876
p1769
aV3510
p1770
aV2697
p1771
aV221
p1772
aV474
p1773
aV1883
p1774
aV666
p1775
aV3392
p1776
aV73
p1777
aV3786
p1778
aV135
p1779
aV576
p1780
aV1896
p1781
aV1961
p1782
aV3845
p1783
aV3352
p1784
aV4014
p1785
aV2208
p1786
aV901
p1787
aV491
p1788
aV2918
p1789
aV415
p1790
aV751
p1791
aV510
p1792
aV2977
p1793
aV3739
p1794
aV511
p1795
aV715
p1796
aV3156
p1797
aV965
p1798
aV3618
p1799
aV1060
p1800
aV3976
p1801
aV68
p1802
aV598
p1803
aV1711
p1804
aV1401
p1805
aV3215
p1806
aV3515
p1807
aV3747
p1808
aV3759
p1809
aV2389
p1810
aV325
p1811
aV2802
p1812
aV1287
p1813
aV1410
p1814
aV30
p1815
aV530
p1816
aV249
p1817
aV4004
p1818
aV1234
p1819
aV248
p1820
aV2426
p1821
aV3563
p1822
aV3743
p1823
aV3738
p1824
aV297
p1825
aV1895
p1826
aV845
p1827
aV3559
p1828
aV3722
p1829
aV2242
p1830
aV3473
p1831
aV2444
p1832
aV2979
p1833
aV3616
p1834
aV1781
p1835
aV312
p1836
aV1905
p1837
aV3416
p1838
aV1134
p1839
aV1901
p1840
aV1355
p1841
aV1421
p1842
aV3572
p1843
aV1154
p1844
aV3279
p1845
aV1906
p1846
aV2411
p1847
aV3706
p1848
aV862
p1849
aV407
p1850
aV3243
p1851
aV2818
p1852
aV3167
p1853
aV599
p1854
aV2182
p1855
aV57
p1856
aV992
p1857
aV2535
p1858
aV806
p1859
aV495
p1860
aV2677
p1861
aV1311
p1862
aV3718
p1863
aV3063
p1864
aV2685
p1865
aV4037
p1866
aV1897
p1867
aV2152
p1868
aV3802
p1869
aV3176
p1870
aV522
p1871
aV1850
p1872
aV3556
p1873
aV2205
p1874
aV3953
p1875
aV1934
p1876
aV1249
p1877
aV266
p1878
aV3151
p1879
aV1625
p1880
aV341
p1881
aV3110
p1882
aV3777
p1883
aV664
p1884
aV3538
p1885
aV2256
p1886
aV1731
p1887
aV3868
p1888
aV2435
p1889
aV314
p1890
aV1805
p1891
aV1585
p1892
aV647
p1893
aV2770
p1894
aV1089
p1895
aV3973
p1896
aV41
p1897
aV2234
p1898
aV149
p1899
aV626
p1900
aV742
p1901
aV3912
p1902
aV2523
p1903
aV609
p1904
aV1264
p1905
aV3822
p1906
aV4031
p1907
aV1444
p1908
aV458
p1909
aV3420
p1910
aV2892
p1911
aV2727
p1912
aV1715
p1913
aV29
p1914
aV3337
p1915
aV490
p1916
aV1671
p1917
aV2016
p1918
aV2375
p1919
aV2513
p1920
aV1885
p1921
aV565
p1922
aV251
p1923
aV3382
p1924
aV1350
p1925
aV1740
p1926
aV2403
p1927
aV863
p1928
aV2650
p1929
aV3766
p1930
aV1773
p1931
aV3148
p1932
aV1452
p1933
aV2082
p1934
aV1503
p1935
aV820
p1936
aV3124
p1937
aV3139
p1938
aV3602
p1939
aV1202
p1940
aV1866
p1941
aV2057
p1942
aV2732
p1943
aV948
p1944
aV137
p1945
aV2879
p1946
aV3523
p1947
aV645
p1948
aV2066
p1949
aV3683
p1950
aV1738
p1951
aV498
p1952
aV3010
p1953
aV3236
p1954
aV736
p1955
aV3632
p1956
aV1694
p1957
aV797
p1958
aV3173
p1959
aV1727
p1960
aV1241
p1961
aV274
p1962
aV1982
p1963
aV681
p1964
aV3548
p1965
aV3278
p1966
aV1944
p1967
aV1196
p1968
aV3157
p1969
aV1225
p1970
aV176
p1971
aV3720
p1972
aV375
p1973
aV3784
p1974
aV1281
p1975
aV3356
p1976
aV3561
p1977
aV1167
p1978
aV94
p1979
aV931
p1980
aV933
p1981
aV3525
p1982
aV614
p1983
aV1216
p1984
aV1677
p1985
aV1356
p1986
aV2816
p1987
aV3654
p1988
aV753
p1989
aV2995
p1990
aV622
p1991
aV573
p1992
aV2357
p1993
aV427
p1994
aV3210
p1995
aV2957
p1996
aV2858
p1997
aV1011
p1998
aV3894
p1999
aV7
p2000
aV418
p2001
aV939
p2002
aV2807
p2003
aV1660
p2004
aV72
p2005
aV105
p2006
aV3745
p2007
aV3229
p2008
aV2644
p2009
aV1088
p2010
aV3768
p2011
aV3701
p2012
aV3286
p2013
aV3995
p2014
aV597
p2015
aV3728
p2016
aV3262
p2017
aV3203
p2018
aV3130
p2019
aV159
p2020
aV2870
p2021
aV3281
p2022
aV3508
p2023
aV3937
p2024
aV2379
p2025
aV1164
p2026
aV357
p2027
aV3276
p2028
aV1847
p2029
aV2011
p2030
aV632
p2031
aV3446
p2032
aV3615
p2033
aV445
p2034
aV1733
p2035
aV2362
p2036
aV236
p2037
aV840
p2038
aV232
p2039
aV141
p2040
aV3165
p2041
aV1325
p2042
aV578
p2043
aV3719
p2044
aV2524
p2045
aV741
p2046
aV3557
p2047
aV3474
p2048
aV2160
p2049
aV3490
p2050
aV3997
p2051
aV150
p2052
aV3916
p2053
aV419
p2054
aV3068
p2055
aV423
p2056
aV2759
p2057
aV546
p2058
aV3381
p2059
aV2668
p2060
aV2713
p2061
aV1658
p2062
aV3481
p2063
aV123
p2064
aV2962
p2065
aV1957
p2066
aV3780
p2067
aV2809
p2068
aV844
p2069
aV3599
p2070
aV260
p2071
aV930
p2072
aV3193
p2073
aV2427
p2074
aV631
p2075
aV3950
p2076
aV3075
p2077
aV2455
p2078
aV2712
p2079
aV31
p2080
aV3519
p2081
aV3357
p2082
aV938
p2083
aV3687
p2084
aV2767
p2085
aV567
p2086
aV372
p2087
aV1308
p2088
aV3933
p2089
aV3603
p2090
aV660
p2091
aV2931
p2092
aV3404
p2093
aV3634
p2094
aV768
p2095
aV1880
p2096
aV810
p2097
aV803
p2098
aV2525
p2099
aV3470
p2100
aV3503
p2101
aV3872
p2102
aV2820
p2103
aV665
p2104
aV3287
p2105
aV663
p2106
aV2794
p2107
aV3639
p2108
aV1911
p2109
aV687
p2110
aV1836
p2111
aV617
p2112
aV3874
p2113
aV1499
p2114
aV3498
p2115
aV2648
p2116
aV1316
p2117
aV420
p2118
aV1118
p2119
aV3263
p2120
aV1739
p2121
aV2612
p2122
aV534
p2123
aV618
p2124
aV843
p2125
aV3779
p2126
aV688
p2127
aV2702
p2128
aV85
p2129
aV1508
p2130
aV1695
p2131
aV36
p2132
aV1282
p2133
aV1884
p2134
aV1615
p2135
aV2700
p2136
aV3393
p2137
aV739
p2138
aV3702
p2139
aV2067
p2140
aV350
p2141
aV2769
p2142
aV1988
p2143
aV1404
p2144
aV582
p2145
aV290
p2146
aV636
p2147
aV683
p2148
aV313
p2149
aV82
p2150
aV3170
p2151
aV2474
p2152
aV471
p2153
aV3804
p2154
aV3066
p2155
aV716
p2156
aV398
p2157
aV469
p2158
aV3825
p2159
aV339
p2160
aV1042
p2161
aV3462
p2162
aV1015
p2163
aV2805
p2164
aV3534
p2165
aV3358
p2166
aV2337
p2167
aV595
p2168
aV640
p2169
aV3909
p2170
aV3514
p2171
aV3698
p2172
aV2883
p2173
aV3735
p2174
aV684
p2175
aV2753
p2176
aV1213
p2177
aV1762
p2178
aV2355
p2179
aV3781
p2180
aV2193
p2181
aV1279
p2182
aV527
p2183
aV1869
p2184
aV1229
p2185
aV1900
p2186
aV697
p2187
aV3705
p2188
aV2633
p2189
aV701
p2190
aV3951
p2191
aV654
p2192
aV3249
p2193
aV2667
p2194
aV276
p2195
aV588
p2196
aV3812
p2197
aV1852
p2198
aV2902
p2199
aV2978
p2200
aV1045
p2201
aV3069
p2202
aV2341
p2203
aV320
p2204
aV1140
p2205
aV3380
p2206
aV2690
p2207
aV352
p2208
aV3379
p2209
aV659
p2210
aV288
p2211
aV2494
p2212
aV3209
p2213
aV1063
p2214
aV1960
p2215
aV1907
p2216
aV601
p2217
aV3945
p2218
aV3567
p2219
aV2126
p2220
aV3865
p2221
aV889
p2222
aV1785
p2223
aV2844
p2224
aV2186
p2225
aV1190
p2226
aV368
p2227
aV100
p2228
aV2893
p2229
aV2641
p2230
aV3202
p2231
aV922
p2232
aV381
p2233
aV2812
p2234
aV1593
p2235
aV3821
p2236
aV463
p2237
aV849
p2238
aV2480
p2239
aV246
p2240
aV774
p2241
aV3967
p2242
aV1922
p2243
aV1976
p2244
aV3505
p2245
aV3471
p2246
aV2231
p2247
aV543
p2248
aV1641
p2249
aV1246
p2250
aV487
p2251
aV3740
p2252
aV3612
p2253
aV3741
p2254
aV2804
p2255
aV1942
p2256
aV2964
p2257
aV1232
p2258
aV1507
p2259
aV3123
p2260
aV2215
p2261
aV2942
p2262
aV2496
p2263
aV1412
p2264
aV424
p2265
aV653
p2266
aV1533
p2267
aV3336
p2268
aV1596
p2269
aV940
p2270
aV914
p2271
aV3244
p2272
aV3231
p2273
aV902
p2274
aV1187
p2275
aV3250
p2276
aV1375
p2277
aV919
p2278
aV3797
p2279
aV2622
p2280
aV3435
p2281
aV3486
p2282
aV1365
p2283
aV2155
p2284
aV1210
p2285
aV1991
p2286
aV2932
p2287
aV3617
p2288
aV3241
p2289
aV496
p2290
aV324
p2291
aV746
p2292
aV1008
p2293
aV1511
p2294
aV1285
p2295
aV600
p2296
aV1788
p2297
aV1100
p2298
aV3842
p2299
aV3550
p2300
aV3773
p2301
aV3216
p2302
aV1189
p2303
aV2674
p2304
aV2318
p2305
aV2209
p2306
aV3541
p2307
aV3171
p2308
aV864
p2309
aV1927
p2310
aV680
p2311
aV1142
p2312
aV1846
p2313
aV331
p2314
aV1248
p2315
aV905
p2316
aV2217
p2317
aV2156
p2318
aV3760
p2319
aV345
p2320
aV45
p2321
aV897
p2322
aV3057
p2323
aV3866
p2324
aV3964
p2325
aV1992
p2326
aV1195
p2327
aV3267
p2328
aV3191
p2329
aV3620
p2330
aV2907
p2331
aV214
p2332
aV1317
p2333
aV3178
p2334
aV1767
p2335
aV2345
p2336
aV1802
p2337
aV2797
p2338
aV1139
p2339
aV1056
p2340
aV196
p2341
aV2735
p2342
aV2639
p2343
aV3998
p2344
aV1165
p2345
aV1324
p2346
aV3837
p2347
aV2243
p2348
aV3948
p2349
aV203
p2350
aV3769
p2351
aV1296
p2352
aV2708
p2353
aV2795
p2354
aV1177
p2355
aV1678
p2356
aV1183
p2357
aV2099
p2358
aV1923
p2359
aV2252
p2360
aV1843
p2361
aV3674
p2362
aV603
p2363
aV3737
p2364
aV2940
p2365
aV2486
p2366
aV3187
p2367
aV2887
p2368
aV1734
p2369
aV2848
p2370
aV3499
p2371
aV1161
p2372
aV957
p2373
aV3475
p2374
aV662
p2375
aV4
p2376
aV2049
p2377
aV2479
p2378
aV3899
p2379
aV3850
p2380
aV1406
p2381
aV275
p2382
aV2584
p2383
aV3788
p2384
aV1635
p2385
aV2436
p2386
aV726
p2387
aV2097
p2388
aV1708
p2389
aV1090
p2390
aV1693
p2391
aV1428
p2392
aV824
p2393
aV1958
p2394
aV3636
p2395
aV1910
p2396
aV3
p2397
aV364
p2398
aV2656
p2399
aV2412
p2400
aV1676
p2401
aV1292
p2402
aV963
p2403
aV3186
p2404
aV451
p2405
aV3895
p2406
aV2737
p2407
aV1259
p2408
aV1116
p2409
aV589
p2410
aV3601
p2411
aV1245
p2412
aV2450
p2413
aV3423
p2414
aV1505
p2415
aV1298
p2416
aV2627
p2417
aV3184
p2418
aV3803
p2419
aV591
p2420
aV1258
p2421
aV3833
p2422
aV3460
p2423
aV2925
p2424
aV1989
p2425
aV1188
p2426
aV2888
p2427
aV2660
p2428
aV678
p2429
aV964
p2430
aV2859
p2431
aV2768
p2432
aV1765
p2433
aV2163
p2434
aV3079
p2435
aV2394
p2436
aV695
p2437
aV2401
p2438
aV641
p2439
aV2658
p2440
aV2314
p2441
aV3907
p2442
aV3969
p2443
aV1649
p2444
aV2889
p2445
aV2552
p2446
aV3981
p2447
aV1566
p2448
aV1379
p2449
aV2762
p2450
aV2610
p2451
aV1435
p2452
aV3545
p2453
aV3949
p2454
aV1725
p2455
aV2346
p2456
aV2062
p2457
aV3410
p2458
aV3029
p2459
aV2385
p2460
aV2686
p2461
aV109
p2462
aV1832
p2463
aV2914
p2464
aV494
p2465
aV766
p2466
aV416
p2467
aV343
p2468
aV1504
p2469
aV3264
p2470
aV2085
p2471
aV2400
p2472
aV2141
p2473
aV3245
p2474
aV1517
p2475
aV1315
p2476
aV2984
p2477
aV2626
p2478
aV489
p2479
aV3695
p2480
aV422
p2481
aV2908
p2482
aV1130
p2483
aV1500
p2484
aV3528
p2485
aV3122
p2486
aV1729
p2487
aV2288
p2488
aV1822
p2489
aV2929
p2490
aV2173
p2491
aV2136
p2492
aV399
p2493
aV1201
p2494
aV387
p2495
aV968
p2496
aV1141
p2497
aV3431
p2498
aV178
p2499
aV1002
p2500
aV3261
p2501
aV1700
p2502
aV3257
p2503
aV3253
p2504
aV1618
p2505
aV3450
p2506
aV955
p2507
aV3001
p2508
aV2367
p2509
aV389
p2510
aV556
p2511
aV2291
p2512
aV1092
p2513
aV4017
p2514
aV928
p2515
aV752
p2516
aV3871
p2517
aV1741
p2518
aV1555
p2519
aV2672
p2520
aV2968
p2521
aV1349
p2522
aV3469
p2523
aV3142
p2524
aV1848
p2525
aV1753
p2526
aV2772
p2527
aV3648
p2528
aV3246
p2529
aV2487
p2530
aV620
p2531
aV913
p2532
aV2719
p2533
aV3564
p2534
aV644
p2535
aV1113
p2536
aV3613
p2537
aV2246
p2538
aV2707
p2539
aV2724
p2540
aV708
p2541
aV1013
p2542
aV2120
p2543
aV2211
p2544
aV3752
p2545
aV3204
p2546
aV2177
p2547
aV551
p2548
aV2221
p2549
aV2765
p2550
aV1899
p2551
aV1514
p2552
aV3237
p2553
aV1114
p2554
aV223
p2555
aV523
p2556
aV762
p2557
aV2728
p2558
aV1841
p2559
aV19
p2560
aV3794
p2561
aV758
p2562
aV986
p2563
aV1446
p2564
aV3753
p2565
aV903
p2566
aV2021
p2567
aV92
p2568
aV3383
p2569
aV3456
p2570
aV2558
p2571
aV3234
p2572
aV3962
p2573
aV1545
p2574
aV3345
p2575
aV172
p2576
aV3531
p2577
aV3402
p2578
aV3062
p2579
aV3476
p2580
aV2405
p2581
aV1681
p2582
aV1003
p2583
aV3485
p2584
aV456
p2585
aV1728
p2586
aV1614
p2587
aV819
p2588
aV3518
p2589
aV430
p2590
aV728
p2591
aV184
p2592
aV962
p2593
aV2406
p2594
aV2473
p2595
aV3526
p2596
aV3576
p2597
aV1160
p2598
aV1044
p2599
aV374
p2600
aV3841
p2601
aV3283
p2602
aV544
p2603
aV1859
p2604
aV3710
p2605
aV2897
p2606
aV1137
p2607
aV2562
p2608
aV537
p2609
aV2994
p2610
aV1527
p2611
aV280
p2612
aV1970
p2613
aV2856
p2614
aV299
p2615
aV2557
p2616
aV3163
p2617
aV3341
p2618
aV1106
p2619
aV2969
p2620
aV1378
p2621
aV619
p2622
aV1642
p2623
aV2669
p2624
aV2729
p2625
aV2747
p2626
aV1464
p2627
aV2687
p2628
aV3137
p2629
aV740
p2630
aV1374
p2631
aV1709
p2632
aV3488
p2633
aV2164
p2634
aV403
p2635
aV542
p2636
aV628
p2637
aV2415
p2638
aV231
p2639
aV1215
p2640
aV457
p2641
aV990
p2642
aV2711
p2643
aV391
p2644
aV621
p2645
aV3810
p2646
aV2489
p2647
aV972
p2648
aV2715
p2649
aV2019
p2650
aV2935
p2651
aV369
p2652
aV3138
p2653
aV1679
p2654
aV3008
p2655
aV2959
p2656
aV670
p2657
aV2983
p2658
aV3225
p2659
aV349
p2660
aV169
p2661
aV444
p2662
aV3571
p2663
aV800
p2664
aV2583
p2665
aV2758
p2666
aV545
p2667
aV3196
p2668
aV3730
p2669
aV2961
p2670
aV3219
p2671
aV2448
p2672
aV2116
p2673
aV926
p2674
aV2803
p2675
aV2810
p2676
aV951
p2677
aV2948
p2678
aV915
p2679
aV161
p2680
aV317
p2681
aV1963
p2682
aV3430
p2683
aV611
p2684
aV342
p2685
aV3677
p2686
aV1803
p2687
aV1575
p2688
aV3442
p2689
aV2936
p2690
aV1223
p2691
aV3213
p2692
aV2955
p2693
aV969
p2694
aV1821
p2695
aV1672
p2696
aV2988
p2697
aV3076
p2698
aV3824
p2699
aV1520
p2700
aV3397
p2701
aV2966
p2702
aV977
p2703
aV446
p2704
aV720
p2705
aV3960
p2706
aV3757
p2707
aV1174
p2708
aV1159
p2709
aV1844
p2710
aV3421
p2711
aV101
p2712
aV2259
p2713
aV1228
p2714
aV2055
p2715
aV2162
p2716
aV3114
p2717
aV2232
p2718
aV151
p2719
aV3273
p2720
aV804
p2721
aV3699
p2722
aV500
p2723
aV62
p2724
aV1955
p2725
aV3764
p2726
aV1470
p2727
aV2518
p2728
aV1493
p2729
aV3466
p2730
aV3663
p2731
aV3891
p2732
aV3693
p2733
aV2519
p2734
aV2628
p2735
aV2939
p2736
aV2991
p2737
aV180
p2738
aV3419
p2739
aV2096
p2740
aV3472
p2741
aV1724
p2742
aV3635
p2743
aV764
p2744
aV3332
p2745
aV194
p2746
aV981
p2747
aV421
p2748
aV1443
p2749
aV959
p2750
aV1712
p2751
aV2974
p2752
aV971
p2753
aV3721
p2754
aV3482
p2755
aV2183
p2756
aV3426
p2757
aV3573
p2758
aV3947
p2759
aV346
p2760
aV754
p2761
aV1595
p2762
aV2970
p2763
aV1166
p2764
aV3438
p2765
aV3956
p2766
aV3906
p2767
aV2361
p2768
aV1283
p2769
aV2647
p2770
aV2958
p2771
aV3527
p2772
aV2618
p2773
aV1763
p2774
aV3656
p2775
aV2654
p2776
aV402
p2777
aV3135
p2778
aV2666
p2779
aV1578
p2780
aV370
p2781
aV1010
p2782
aV3449
p2783
aV1904
p2784
aV2447
p2785
aV148
p2786
aV558
p2787
aV3144
p2788
aV1036
p2789
aV3238
p2790
aV1001
p2791
aV1293
p2792
aV2129
p2793
aV2748
p2794
aV1274
p2795
aV1481
p2796
aV2819
p2797
aV3067
p2798
aV285
p2799
aV1666
p2800
aV1019
p2801
aV1157
p2802
aV1892
p2803
aV2298
p2804
aV2967
p2805
aV3455
p2806
aV1327
p2807
aV1290
p2808
aV1459
p2809
aV1451
p2810
aV2488
p2811
aV2675
p2812
aV1624
p2813
aV934
p2814
aV3226
p2815
aV2459
p2816
aV1426
p2817
aV1860
p2818
aV473
p2819
aV3182
p2820
aV3009
p2821
aV1348
p2822
aV2806
p2823
aV1236
p2824
aV2101
p2825
aV3185
p2826
aV1457
p2827
aV1115
p2828
aV1645
p2829
aV1037
p2830
aV3815
p2831
aV3631
p2832
aV1823
p2833
aV1314
p2834
aV3177
p2835
aV536
p2836
aV2720
p2837
aV2921
p2838
aV3102
p2839
aV1121
p2840
aV465
p2841
aV3391
p2842
aV1407
p2843
aV3150
p2844
aV1919
p2845
aV2151
p2846
aV79
p2847
aV696
p2848
aV1408
p2849
aV3260
p2850
aV4023
p2851
aV1180
p2852
aV627
p2853
aV1828
p2854
aV1894
p2855
aV1035
p2856
aV1698
p2857
aV1634
p2858
aV2147
p2859
aV1416
p2860
aV1760
p2861
aV395
p2862
aV1131
p2863
aV1532
p2864
aV539
p2865
aV1107
p2866
aV847
p2867
aV592
p2868
aV3577
p2869
aV2159
p2870
aV360
p2871
aV265
p2872
aV3007
p2873
aV492
p2874
aV3000
p2875
aV3339
p2876
aV2723
p2877
aV2338
p2878
aV1875
p2879
aV329
p2880
aV703
p2881
aV635
p2882
aV2006
p2883
aV1909
p2884
aV1839
p2885
aV1747
p2886
aV1369
p2887
aV1366
p2888
aV3346
p2889
aV1914
p2890
aV842
p2891
aV1752
p2892
aV3353
p2893
aV770
p2894
aV580
p2895
aV3596
p2896
aV3384
p2897
aV1454
p2898
aV2706
p2899
aV1512
p2900
aV553
p2901
aV942
p2902
aV579
p2903
aV3838
p2904
aV1448
p2905
aV1995
p2906
aV404
p2907
aV3558
p2908
aV2387
p2909
aV2941
p2910
aV3496
p2911
aV3417
p2912
aV848
p2913
aV3051
p2914
aV1686
p2915
aV2371
p2916
aV2909
p2917
aV461
p2918
aV212
p2919
aV1687
p2920
aV3668
p2921
aV1110
p2922
aV1882
p2923
aV1630
p2924
aV823
p2925
aV1250
p2926
aV2009
p2927
aV2472
p2928
aV1372
p2929
aV1515
p2930
aV3918
p2931
aV1706
p2932
aV2880
p2933
aV615
p2934
aV3861
p2935
aV334
p2936
aV2568
p2937
aV2258
p2938
aV2851
p2939
aV434
p2940
aV3053
p2941
aV596
p2942
aV1782
p2943
aV2465
p2944
aV2214
p2945
aV1218
p2946
aV3329
p2947
aV9
p2948
aV3386
p2949
aV1313
p2950
aV1798
p2951
aV984
p2952
aV1691
p2953
aV1135
p2954
aV119
p2955
aV1381
p2956
aV1052
p2957
aV577
p2958
aV3077
p2959
aV1610
p2960
aV2911
p2961
aV2137
p2962
aV2760
p2963
aV1540
p2964
aV568
p2965
aV1994
p2966
aV2378
p2967
aV2950
p2968
aV3117
p2969
aV2688
p2970
aV1516
p2971
aV1373
p2972
aV2335
p2973
aV3344
p2974
aV3957
p2975
aV2680
p2976
aV1392
p2977
aV2999
p2978
aV3335
p2979
aV2197
p2980
aV2317
p2981
aV2293
p2982
aV197
p2983
aV438
p2984
aV3064
p2985
aV3240
p2986
aV1389
p2987
aV2272
p2988
aV1685
p2989
aV400
p2990
aV3168
p2991
aV128
p2992
aV2223
p2993
aV1497
p2994
aV3463
p2995
aV531
p2996
aV1158
p2997
aV999
p2998
aV3248
p2999
aV1916
p3000
aV2800
p3001
aV1872
p3002
aV497
p3003
aV3873
p3004
aV2365
p3005
aV1450
p3006
aV89
p3007
aV2730
p3008
aV2756
p3009
aV1261
p3010
aV3436
p3011
aV3549
p3012
aV211
p3013
aV3350
p3014
aV376
p3015
aV3052
p3016
aV3311
p3017
aV3111
p3018
aV975
p3019
aV3480
p3020
aV3118
p3021
aV3889
p3022
aV1122
p3023
aV1536
p3024
aV3394
p3025
aV3172
p3026
aV2399
p3027
aV2112
p3028
aV932
p3029
aV2733
p3030
aV1163
p3031
aV3002
p3032
aV2546
p3033
aV2657
p3034
aV2689
p3035
aV1396
p3036
aV2866
p3037
aV2364
p3038
aV2920
p3039
aV353
p3040
aV3448
p3041
aV995
p3042
aV1873
p3043
aV853
p3044
aV1227
p3045
aV1650
p3046
aV3265
p3047
aV535
p3048
aV3776
p3049
aV225
p3050
aV2846
p3051
aV3169
p3052
aV784
p3053
aV1659
p3054
aV2606
p3055
aV3192
p3056
aV1049
p3057
aV3465
p3058
aV1851
p3059
aV2108
p3060
aV3220
p3061
aV1475
p3062
aV1458
p3063
aV2624
p3064
aV2976
p3065
aV2053
p3066
asS'hkpr_apprx'
p3067
(lp3068
V2470
p3069
aV179
p3070
aV2575
p3071
aV2515
p3072
aV1971
p3073
aV1989
p3074
aV2234
p3075
aV2154
p3076
aV2276
p3077
aV2591
p3078
aV2136
p3079
aV2469
p3080
aV2060
p3081
aV2602
p3082
aV2122
p3083
aV2468
p3084
aV2030
p3085
aV2098
p3086
aV2090
p3087
aV2370
p3088
aV2331
p3089
aV2581
p3090
aV2034
p3091
aV2045
p3092
aV2172
p3093
aV2124
p3094
aV2139
p3095
aV2532
p3096
aV2578
p3097
aV2056
p3098
aV2410
p3099
aV2309
p3100
asS'hkpr_exact'
p3101
(lp3102
V1912
p3103
aV2543
p3104
aV2347
p3105
aV2266
p3106
aV1985
p3107
aV2233
p3108
aV2142
p3109
aV1941
p3110
aV2206
p3111
aV2410
p3112
aV2611
p3113
aV2229
p3114
aV2218
p3115
aV2078
p3116
aV2123
p3117
aV1993
p3118
as.