(dp0
S'pagerank'
p1
(lp2
I1189
aI1188
aI1234
aI1117
aI1233
aI2195
asS'hkpr_apprx'
p3
(lp4
I1188
aI1234
aI1117
aI2125
aI1448
aI2124
aI1347
aI1462
aI1447
aI1279
aI1599
aI2000
aI1460
aI1855
aI1435
aI1856
aI2012
aI1953
aI1951
aI1339
aI1147
aI2079
aI1309
aI1341
aI1584
aI2122
aI1340
aI2070
aI1679
aI2073
aI1865
aI2055
aI1312
aI1589
aI2090
aI2120
aI2189
aI2195
aI1311
aI2101
aI2061
aI1842
aI1093
aI2121
aI2134
aI2107
aI1467
aI2066
aI1083
aI1461
aI1817
aI2082
aI1316
aI2184
aI2185
aI1164
aI2198
aI1177
aI1201
aI2137
aI2085
aI1094
aI1095
aI1357
aI2140
aI2084
aI1556
aI1814
aI1753
aI1310
aI1920
aI2077
aI1717
aI1463
aI1489
aI1276
aI1278
aI1540
aI1101
aI1089
aI1175
aI1209
aI1170
aI2139
aI1446
asS'hkpr_exact'
p5
(lp6
I1460
aI1953
aI1584
aI1309
aI1461
aI1311
aI1446
aI1104
aI1095
aI1117
aI1489
aI1447
aI1530
aI1170
aI1356
aI2101
aI2107
aI1842
aI2137
aI2192
aI1951
aI1276
aI2159
aI2096
aI1093
aI1435
aI1386
aI1589
aI1100
aI1463
aI2083
aI2073
aI1278
aI2084
aI2085
aI2082
aI1466
aI2066
aI2140
aI1467
aI2191
aI1164
aI1083
aI1089
aI1436
aI1855
aI2012
aI1347
aI1177
aI1599
aI2000
aI2071
aI2190
aI1189
aI1234
aI1352
aI1151
aI1416
aI1094
aI2150
aI1484
aI1166
aI1817
aI2139
aI1462
aI1147
aI1403
aI1173
aI2134
aI2090
aI1201
aI2094
aI2123
aI2144
aI2055
aI2072
aI2108
aI2074
aI1159
aI2070
aI2122
aI1206
aI2081
aI2105
aI2095
aI2079
aI2056
aI1279
aI2143
aI2187
aI2186
aI2061
aI2121
aI1340
aI1209
aI1339
aI1531
aI1316
aI2077
aI1148
aI1556
aI1856
aI1312
aI2157
aI2091
aI2195
aI2138
aI1506
aI1753
aI1361
aI2135
aI1468
aI2120
aI1210
aI1371
aI1321
aI1101
aI1277
aI1140
aI2145
aI1865
aI1717
aI1335
aI1448
aI2149
aI1334
aI1175
aI1387
aI1415
aI1357
aI1679
aI2156
aI1341
aI1505
aI1473
aI2124
aI2125
aI2184
aI1471
aI1195
aI1536
aI1158
aI1649
aI1954
aI2189
aI1540
aI1178
aI1152
aI1359
aI2136
aI1844
aI1522
aI1908
aI2185
aI1541
aI1412
aI1183
aI2064
aI2063
aI2062
aI1134
aI1091
aI2179
aI488
aI1747
aI1109
aI1090
aI1706
aI1752
aI2007
aI1614
aI1360
aI1165
aI1558
aI1521
aI1310
aI1654
aI1167
aI1452
aI1814
aI1272
aI2176
aI1883
aI2203
aI1486
aI2171
aI2172
aI284
aI2036
aI1295
aI1503
aI1487
aI285
aI1495
aI1474
aI2165
aI2166
aI2076
aI2201
aI2168
aI2170
aI2169
aI2131
aI1284
aI1920
aI1188
aI1233
aI1363
aI1060
aI1142
aI1999
aI2173
aI313
aI1439
aI1444
aI2200
aI1171
aI1169
aI1897
aI1345
aI1887
aI2103
aI316
aI1207
aI1244
aI1485
aI1687
aI1950
aI1074
aI1245
aI1678
aI1194
aI1681
aI2188
aI2199
aI2037
aI1520
aI1265
aI1588
aI1075
aI1587
aI1928
aI1098
aI1867
aI1874
aI1333
aI305
aI2044
aI1322
aI242
aI1087
aI1846
aI1748
aI1464
aI1465
aI1507
aI280
aI1644
aI249
aI1705
aI1557
aI1919
aI1719
aI2198
aI2204
aI1620
aI1332
aI1458
aI1218
aI1319
aI1085
aI1413
aI1069
aI1712
aI1224
aI1516
aI1524
aI2180
aI1478
aI1904
aI1370
aI1929
aI1526
aI1438
aI1849
aI1675
aI282
aI1450
aI295
aI302
aI279
aI1425
aI306
aI1853
aI1440
aI1905
aI257
aI1390
aI1391
aI1684
aI299
aI1770
aI2202
aI1512
aI1586
aI1380
aI1542
aI298
aI2183
aI1777
aI2003
aI1533
aI1515
aI1076
aI1702
aI1940
aI1119
aI1362
aI1346
aI1525
aI1646
aI1353
aI1306
aI1893
aI1445
aI1864
aI1502
aI1528
aI1211
aI1212
aI2178
aI1326
aI1917
aI274
aI1078
aI255
aI1106
aI2042
aI1070
aI246
aI2132
aI1267
aI1108
aI1217
aI1757
aI1496
aI353
aI1775
aI2015
aI1063
aI1700
aI1617
aI1088
aI1411
aI2010
aI1273
aI1235
aI1952
aI1146
aI2177
aI1610
aI1086
aI2193
aI360
aI1313
aI1061
aI1062
aI254
aI1400
aI2017
aI1213
aI1414
aI1895
aI1650
aI1527
aI1619
aI1300
aI355
aI1765
aI1365
aI1875
aI1519
aI1818
aI1564
aI1811
aI1682
aI2068
aI1320
aI362
aI1938
aI1866
aI1989
aI1274
aI1367
aI240
aI1569
aI1834
aI1926
aI296
aI311
aI2002
aI1616
aI1788
aI2045
aI1626
aI1419
aI1369
aI1847
aI1459
aI2020
aI1368
aI2035
aI1677
aI378
aI1237
aI258
aI1882
aI1358
aI337
aI1229
aI2016
aI335
aI312
aI1959
aI1673
aI2167
aI2027
aI1389
aI1251
aI342
aI1301
aI1761
aI1378
aI2030
aI330
aI1186
aI1337
aI1909
aI1943
aI1141
aI1396
aI1868
aI1097
aI2008
aI315
aI1429
aI1348
aI1065
aI1247
aI1735
aI1342
aI1176
aI1385
aI247
aI1807
aI260
aI351
aI2026
aI1973
aI1116
aI1384
aI1257
aI1268
aI327
aI1630
aI1373
aI310
aI314
aI1269
aI336
aI1080
aI1538
aI1539
aI1366
aI1513
aI1289
aI1631
aI1990
aI1566
aI1401
aI252
aI1294
aI1323
aI278
aI1475
aI1181
aI4435
aI1168
aI1107
aI366
aI1729
aI352
aI1099
aI1252
aI1903
aI239
aI1894
aI1197
aI261
aI1216
aI303
aI1835
aI1933
aI1223
aI1351
aI1488
aI329
aI365
aI1612
aI1160
aI1577
aI1243
aI1632
aI334
aI1499
aI1936
aI1472
aI1433
aI1205
aI361
aI1949
aI1559
aI2019
aI1997
aI402
aI4439
aI332
aI1451
aI4441
aI1713
aI354
aI1066
aI1490
aI1220
aI1304
aI2164
aI262
aI1975
aI1128
aI1286
aI1504
aI1676
aI1236
aI250
aI1254
aI350
aI1723
aI1514
aI1420
aI1906
aI1344
aI1776
aI1222
aI1318
aI1296
aI292
aI1836
aI1624
aI1410
aI1379
aI1349
aI1255
aI357
aI2050
aI4436
aI1172
aI2181
aI1800
aI4442
aI309
aI1096
aI325
aI1442
aI4421
aI2112
aI1136
aI4437
aI2046
aI2075
aI1613
aI1253
aI1663
aI1827
aI1449
aI1343
aI1327
aI381
aI318
aI1529
aI2163
aI2047
aI1902
aI1082
aI241
aI1081
aI269
aI2004
aI1628
aI1092
aI368
aI251
aI1204
aI1428
aI1884
aI259
aI1430
aI1470
aI1738
aI1388
aI2086
aI356
aI1625
aI1809
aI326
aI1198
aI371
aI1552
aI290
aI1731
aI1394
aI1535
aI1196
aI1193
aI1939
aI277
aI1656
aI1655
aI1157
aI343
aI1399
aI1408
aI1123
aI411
aI1618
aI1199
aI1364
aI1124
aI1409
aI1751
aI344
aI345
aI2069
aI1694
aI1426
aI1914
aI1118
aI1432
aI1331
aI1511
aI1688
aI1885
aI253
aI243
aI435
aI244
aI1810
aI1965
aI238
aI1825
aI1290
aI1749
aI1925
aI333
aI1604
aI1852
aI1120
aI1956
aI1105
aI1634
aI1395
aI1695
aI1297
aI1570
aI2092
aI1455
aI1271
aI1418
aI317
aI1242
aI1962
aI1240
aI1762
aI4426
aI1372
aI1639
aI1843
aI1231
aI1824
aI1736
aI1084
aI2151
aI1627
aI1781
aI1498
aI1154
aI2005
aI2126
aI1111
aI1510
aI1945
aI1453
aI1454
aI2009
aI1325
aI276
aI1497
aI1431
aI1072
aI1901
aI811
aI283
aI1422
aI2018
aI1256
aI1664
aI1126
aI338
aI1560
aI1993
aI1636
aI2109
aI1156
aI4431
aI272
aI319
aI1424
aI1968
aI2104
aI287
aI2194
aI1285
aI1500
aI1674
aI1859
aI1579
aI2119
aI1798
aI1930
aI1900
aI1648
aI1374
aI1427
aI2113
aI1102
aI1547
aI304
aI307
aI1660
aI1143
aI1622
aI2141
aI1961
aI800
aI2098
aI1983
aI1806
aI1127
aI340
aI2097
aI364
aI363
aI1876
aI1508
aI1202
aI1324
aI1892
aI1937
aI267
aI2128
aI1607
aI301
aI264
aI281
aI1230
aI1609
aI1783
aI1137
aI1203
aI793
aI1308
aI1200
aI1629
aI1593
aI1480
aI1964
aI369
aI266
aI1732
aI2129
aI1600
aI1994
aI1725
aI1782
aI248
aI1891
aI1995
aI1492
aI1707
aI1623
aI1773
aI2111
aI1350
aI2182
aI1605
aI1992
aI1863
aI1941
aI422
aI1144
aI1258
aI1594
aI308
aI1437
aI1406
aI1263
aI2021
aI1829
aI1942
aI1336
aI2034
aI1161
aI377
aI822
aI1477
aI370
aI1067
aI1647
aI1799
aI1980
aI1934
aI1073
aI1317
aI346
aI1935
aI2130
aI1305
aI1225
aI1734
aI1727
aI1260
aI1822
aI1064
aI744
aI1135
aI1576
aI1402
aI1288
aI245
aI1924
aI4432
aI4443
aI1598
aI2118
aI1662
aI1633
aI1133
aI1554
aI1778
aI1131
aI2089
aI1871
aI392
aI1291
aI1079
aI1715
aI1491
aI4422
aI1250
aI1877
aI4427
aI328
aI379
aI780
aI1821
aI1280
aI804
aI256
aI439
aI293
aI2054
aI1923
aI1728
aI1249
aI1699
aI2022
aI1944
aI1881
aI4428
aI1801
aI743
aI1823
aI1130
aI1571
aI1602
aI1567
aI1568
aI1850
aI1443
aI1155
aI1293
aI1922
aI375
aI1763
aI1191
aI1383
aI1132
aI1869
aI1338
aI373
aI1456
aI1457
aI758
aI1932
aI2114
aI1103
aI1996
aI1292
aI1969
aI2067
aI1963
aI1215
aI1760
aI2001
aI1580
aI431
aI1281
aI803
aI795
aI1501
aI297
aI289
aI1114
aI2049
aI1690
aI341
aI1068
aI1837
aI1145
aI1820
aI1661
aI461
aI1795
aI359
aI1967
aI1726
aI2029
aI2117
aI322
aI1303
aI1112
aI1266
aI1270
aI1830
aI1523
aI1115
aI2080
aI1382
aI1221
aI4430
aI374
aI4425
aI2106
aI1911
aI1981
aI1977
aI1828
aI1354
aI1755
aI1110
aI2110
aI1831
aI1192
aI2153
aI762
aI1601
aI291
aI367
aI436
aI405
aI1581
aI1691
aI1441
aI286
aI1987
aI438
aI1873
aI1709
aI1377
aI1838
aI1476
aI358
aI324
aI1872
aI4362
aI1786
aI275
aI270
aI273
aI271
aI1423
aI1582
aI339
aI391
aI757
aI1583
aI1573
aI1307
aI1703
aI4433
aI372
aI1698
aI2099
aI783
aI1494
aI1710
aI1574
aI1721
aI1551
aI348
aI347
aI2133
aI268
aI1208
aI1298
aI1549
aI1330
aI1848
aI4352
aI2031
aI1779
aI1879
aI1794
aI1974
aI1226
aI1819
aI1685
aI2102
aI1637
aI1737
aI1982
aI1227
aI1228
aI1860
aI772
aI2146
aI1329
aI1813
aI288
aI809
aI2065
aI4438
aI1686
aI382
aI4440
aI1652
aI472
aI4392
aI1803
aI1643
aI331
aI2148
aI410
aI1113
aI1774
aI1986
aI4363
aI2011
aI1948
aI1861
aI1666
aI1214
aI1971
aI1479
aI1493
aI1759
aI1392
aI1239
aI349
aI4384
aI2197
aI1561
aI4423
aI1287
aI1077
aI1262
aI1746
aI1376
aI1966
aI742
aI1261
aI1603
aI1283
aI1680
aI2043
aI4374
aI1692
aI1758
aI1802
aI4434
aI1916
aI1264
aI794
aI1434
aI300
aI1621
aI4420
aI1667
aI1139
aI1138
aI1537
aI1955
aI789
aI1970
aI1219
aI1555
aI1565
aI808
aI2116
aI2051
aI759
aI1927
aI1405
aI1328
aI791
aI1509
aI815
aI1750
aI1683
aI1608
aI1550
aI740
aI1548
aI320
aI1635
aI813
aI812
aI4424
aI1180
aI1381
aI4429
aI1841
aI1299
aI779
aI1543
aI1190
aI1756
aI1745
aI1591
aI2154
aI1918
aI1722
aI1314
aI1150
aI1972
aI2087
aI376
aI1153
aI1397
aI2155
aI1880
aI771
aI2175
aI1585
aI2115
aI1275
aI1611
aI473
aI763
aI1393
aI321
aI2053
aI1978
aI1780
aI1657
aI2196
aI2014
aI1730
aI2060
aI434
aI2127
aI1689
aI412
aI750
aI1898
aI2088
aI432
aI748
aI1913
aI1129
aI4402
aI1248
aI458
aI1832
aI1469
aI1638
aI1187
aI457
aI425
aI760
aI4401
aI2557
aI4381
aI1544
aI1886
aI430
aI4376
aI2006
aI1784
aI1122
aI1653
aI1796
aI754
aI2594
aI778
aI426
aI394
aI4332
aI810
aI1744
aI814
aI1816
aI1870
aI1125
aI777
aI1764
aI403
aI401
aI1708
aI1259
aI4345
aI413
aI406
aI1534
aI1979
aI1797
aI787
aI1162
aI1532
aI1282
aI1597
aI1812
aI1246
aI1179
aI4413
aI1651
aI1163
aI1733
aI1071
aI2158
aI416
aI801
aI1701
aI1976
aI1724
aI4367
aI1232
aI409
aI1185
aI1704
aI1562
aI1670
aI1839
aI823
aI824
aI764
aI2032
aI792
aI1815
aI1483
aI1592
aI4344
aI380
aI1991
aI442
aI1421
aI4408
aI774
aI1407
aI1182
aI2052
aI739
aI2023
aI1375
aI265
aI323
aI4342
aI460
aI1575
aI4341
aI2057
aI4370
aI4369
aI1149
aI1907
aI1315
aI2519
aI1858
aI1693
aI294
aI1718
aI1912
aI2038
aI802
aI2058
aI1398
aI1910
aI1238
aI1772
aI1754
aI441
aI1696
aI2028
aI2593
aI1984
aI1931
aI4415
aI770
aI1998
aI2041
aI427
aI1658
aI4404
aI1302
aI2558
aI4336
aI799
aI2909
aI786
aI4368
aI4398
aI1899
aI819
aI4347
aI1805
aI1878
aI2039
aI749
aI756
aI1563
aI1826
aI263
aI1988
aI4373
aI1785
aI424
aI2282
aI4395
aI4346
aI1404
aI1789
aI4386
aI1947
aI2142
aI781
aI1659
aI1740
aI423
aI796
aI2459
aI4361
aI1615
aI1572
aI4335
aI1671
aI1890
aI2605
aI4327
aI776
aI2147
aI766
aI807
aI1668
aI1921
aI471
aI4934
aI1739
aI1808
aI1553
aI1771
aI1840
aI2414
aI469
aI2033
aI1915
aI1767
aI1355
aI1595
aI383
aI1546
aI1946
aI1769
aI1669
aI2100
aI443
aI1714
aI4410
aI4385
aI4391
aI1241
aI2606
aI396
aI820
aI2417
aI741
aI746
aI1833
aI817
aI2207
aI1766
aI782
aI433
aI1665
aI1417
aI464
aI1545
aI1851
aI1716
aI2532
aI468
aI2475
aI1640
aI1697
aI1642
aI818
aI1862
aI1845
aI1804
aI384
aI1857
aI2040
aI1742
aI805
aI745
aI1790
aI785
aI4359
aI2458
aI2174
aI4928
aI4372
aI404
aI2048
aI414
aI4365
aI2612
aI1960
aI390
aI1958
aI1787
aI4940
aI2213
aI4375
aI4340
aI4357
aI2059
aI2162
aI444
aI1517
aI393
aI1596
aI1896
aI788
aI4939
aI4333
aI420
aI1711
aI1985
aI4933
aI2611
aI447
aI1121
aI768
aI769
aI761
aI395
aI4695
aI816
aI752
aI747
aI784
aI753
aI2212
aI459
aI1672
aI2617
aI790
aI755
aI450
aI798
aI386
aI1957
aI1720
aI2508
aI2516
aI2599
aI2425
aI4932
aI821
aI2093
aI4383
aI2078
aI2013
aI1889
aI1590
aI1793
aI2304
aI1518
aI765
aI806
aI1854
aI4364
aI2474
aI2528
aI455
aI2413
aI2618
aI466
aI4396
aI1768
aI2591
aI4930
aI4337
aI2569
aI2572
aI2283
aI2953
aI4371
aI2704
aI1888
aI773
aI767
aI1741
aI4929
aI452
aI4935
aI454
aI2607
aI4343
aI2604
aI2160
aI1641
aI3985
aI2480
aI2161
aI4354
aI4938
aI2567
aI775
aI751
aI2896
aI428
aI3987
aI440
aI4378
aI1743
aI797
aI2502
aI4927
aI421
aI462
aI2025
aI429
aI2910
aI2479
aI4377
aI2372
aI1578
aI388
aI4937
aI2354
aI1174
aI4416
aI1645
aI419
aI2503
as.