(dp0
S'pagerank'
p1
(lp2
I1189
aI1188
aI1234
aI1117
aI1233
aI2195
aI1461
aI1436
aI1463
aI1584
aI848
aI4224
aI4073
aI597
aI2694
aI4209
aI1738
aI4930
aI4203
aI3706
aI4078
aI4539
aI210
aI3480
aI3679
aI4157
aI3719
aI575
aI4175
aI4299
aI3562
aI917
aI918
aI4195
aI4098
aI1671
aI4210
aI3445
aI3710
aI1681
aI926
aI927
aI2431
aI2915
aI2982
aI3442
aI849
aI1778
aI4100
aI3530
aI4755
aI4143
aI2647
aI3740
aI2495
aI4155
aI1546
aI1645
aI1936
aI2228
aI2421
aI4823
aI3378
aI664
aI4184
aI4538
aI3007
aI4291
aI2979
aI4422
aI2506
aI3658
aI2842
aI4167
aI4475
aI4938
aI3579
aI4264
aI3641
aI3728
aI2656
aI3717
aI2479
aI4117
aI4124
aI1393
aI1582
aI1592
aI509
aI831
aI1639
aI3690
aI1608
aI1271
aI4780
aI274
aI1263
aI4092
aI3634
aI4427
aI4103
aI4165
aI994
aI1706
aI327
aI3694
aI2759
aI1222
aI1816
aI4284
aI1906
aI2180
aI4279
aI4791
aI3272
aI4182
aI3827
aI3853
aI4761
aI3083
aI3084
aI3085
aI3167
aI2828
aI2071
aI300
aI3590
aI4564
aI4681
aI3363
aI4526
aI3656
aI4697
aI2508
aI2516
aI1955
aI1083
aI1337
aI3541
aI4500
aI8
aI372
aI4055
aI3456
aI4181
aI236
aI2666
aI2895
aI2898
aI2899
aI4794
aI4246
aI3615
aI3545
aI4158
aI1840
aI2884
aI3576
aI2275
aI4426
aI1952
aI4520
aI933
aI4727
aI2711
aI4579
aI4583
aI2315
aI308
aI1940
aI4431
aI2990
aI449
aI3082
aI3087
aI3605
aI3815
aI4045
aI3431
aI4674
aI3136
aI357
aI3368
aI4591
aI1780
aI3088
aI4816
aI4935
aI2735
aI3660
aI4472
aI4645
aI2897
aI1566
aI4820
aI3135
aI221
aI3422
aI4131
aI4850
aI2799
aI1971
aI3229
aI2640
aI515
aI2963
aI1793
aI3880
aI4548
aI593
aI3089
aI1824
aI4700
aI4301
aI4462
aI3726
aI2939
aI1430
aI1206
aI4671
aI4683
aI2590
aI722
aI4786
aI4768
aI4798
aI1933
aI2044
aI3453
aI4698
aI4664
aI331
aI520
aI3969
aI3589
aI1480
aI4470
aI4513
aI2057
aI3992
aI911
aI1763
aI1843
aI2009
aI2746
aI2747
aI2752
aI2827
aI3023
aI3081
aI3537
aI3603
aI4638
aI1747
aI3662
aI4769
aI3518
aI946
aI4204
aI4554
aI1224
aI698
aI706
aI2970
aI3709
aI4528
aI2360
aI715
aI604
aI3665
aI772
aI594
aI2658
aI326
aI4792
aI2433
aI4454
aI4455
aI1264
aI1916
aI2010
aI129
aI2817
aI3350
aI1973
aI3650
aI4880
aI3072
aI2632
aI3468
aI4129
aI165
aI699
aI707
aI3523
aI361
aI224
aI3705
aI13
aI386
aI2893
aI3384
aI1847
aI3510
aI841
aI609
aI2938
aI3820
aI3943
aI2767
aI709
aI728
aI3798
aI1828
aI3859
aI4161
aI89
aI3320
aI3536
aI732
aI3086
aI2700
aI4193
aI3493
aI3494
aI3495
aI1071
aI2667
aI4433
aI1162
aI3973
aI338
aI54
aI4720
aI2106
aI4878
aI1437
aI1932
aI1628
aI1510
aI2896
aI4562
aI352
aI3101
aI3102
aI4549
aI276
aI3410
aI4637
aI3302
aI4640
aI324
aI1644
aI4818
aI696
aI3873
aI3027
aI1547
aI672
aI269
aI3355
aI561
aI1494
aI2729
aI216
aI292
aI234
aI535
aI2661
aI3611
aI4561
aI2366
aI2145
aI4097
aI491
aI3040
aI1985
aI4499
aI2397
aI461
aI1030
aI1812
aI1408
aI2162
aI4052
aI1965
aI3451
aI163
aI2267
aI358
aI4011
aI3708
aI4921
aI4585
aI2293
aI3745
aI1712
aI3427
aI99
aI1521
aI1136
aI2509
aI3031
aI3032
aI3462
aI4574
aI3923
aI4838
aI1581
aI3508
aI4146
aI720
aI2730
aI1319
aI396
aI1801
aI463
aI2644
aI4923
aI3736
aI34
aI2444
aI1765
aI2023
aI3009
aI3514
aI14
aI4503
aI2239
aI3414
aI4551
aI4859
aI2600
aI830
aI68
aI3411
aI4705
aI1895
aI658
aI3584
aI987
aI983
aI107
aI2093
aI4491
aI1947
aI3575
aI3746
aI4068
aI4770
aI4939
aI1181
aI1255
aI1270
aI1404
aI1618
aI1659
aI1703
aI1704
aI1735
aI1764
aI1837
aI1900
aI1913
aI1968
aI2048
aI2049
aI2112
aI2164
aI2226
aI2422
aI3338
aI3949
aI3982
aI4053
aI4629
aI4710
aI4724
aI4735
aI1967
aI4148
aI4252
aI630
aI530
aI528
aI2192
aI3521
aI3643
aI4854
aI2570
aI4106
aI2159
aI458
aI36
aI1667
aI3538
aI40
aI4108
aI2238
aI627
aI4913
aI1375
aI4704
aI29
aI4648
aI3817
aI3070
aI1729
aI422
aI4653
aI3002
aI711
aI2768
aI4834
aI442
aI3429
aI3711
aI2646
aI3188
aI3625
aI4061
aI1112
aI4734
aI1612
aI4060
aI4934
aI1142
aI3426
aI4540
aI4910
aI731
aI1588
aI2178
aI1122
aI2182
aI3568
aI2564
aI3786
aI1774
aI4534
aI1876
aI4563
aI242
aI88
aI798
aI4105
aI3464
aI47
aI177
aI3234
aI3251
aI2563
aI176
aI1409
aI2653
aI4566
aI648
aI3071
aI1398
aI3189
aI4625
aI1516
aI53
aI1766
aI2583
aI3197
aI162
aI1897
aI1709
aI1186
aI4609
aI1982
aI3557
aI4493
aI1795
aI1598
aI2321
aI1518
aI2004
aI1634
aI2500
aI4659
aI341
aI1492
aI3692
aI3187
aI3074
aI4576
aI1491
aI4654
aI1127
aI3588
aI1829
aI3196
aI4590
aI1528
aI3261
aI2340
aI4489
aI4687
aI4153
aI1190
aI3762
aI607
aI222
aI2660
aI2751
aI4911
aI27
aI166
aI1248
aI1470
aI1555
aI1652
aI1782
aI1830
aI1841
aI2200
aI2217
aI3998
aI4050
aI4713
aI4716
aI2949
aI4265
aI666
aI3090
aI3091
aI748
aI4137
aI589
aI3465
aI3739
aI1289
aI4751
aI3979
aI577
aI2303
aI1282
aI2686
aI3749
aI1804
aI3288
aI3289
aI4928
aI2464
aI3371
aI736
aI2052
aI3069
aI353
aI4767
aI4305
aI2401
aI247
aI2638
aI4109
aI3073
aI3985
aI4592
aI2985
aI702
aI19
aI2336
aI218
aI4504
aI161
aI377
aI412
aI1397
aI1696
aI1701
aI1745
aI1854
aI1990
aI2325
aI2748
aI2749
aI2750
aI2919
aI3475
aI3492
aI4428
aI4896
aI3654
aI4647
aI4776
aI4919
aI3513
aI184
aI765
aI806
aI4485
aI3401
aI843
aI1693
aI1616
aI4718
aI770
aI4747
aI2204
aI690
aI2031
aI4529
aI2439
aI3446
aI1513
aI526
aI1550
aI2463
aI644
aI286
aI1130
aI3975
aI4839
aI793
aI1358
aI1730
aI1734
aI1867
aI3597
aI4702
aI4731
aI4903
aI3810
aI1060
aI3511
aI1304
aI2649
aI1668
aI981
aI819
aI3416
aI4685
aI98
aI1371
aI4461
aI3522
aI647
aI4860
aI713
aI1081
aI2146
aI4840
aI4553
aI391
aI115
aI1607
aI1779
aI3544
aI4624
aI661
aI3758
aI309
aI122
aI1111
aI3294
aI3628
aI4056
aI3846
aI3343
aI1210
aI4415
aI1376
aI1743
aI3666
aI1260
aI136
aI2313
aI3635
aI1114
aI1996
aI2234
aI2245
aI4711
aI4714
aI4738
aI4851
aI1066
aI2363
aI4482
aI3651
aI733
aI1559
aI1571
aI2025
aI1001
aI1896
aI1442
aI2536
aI2502
aI4471
aI4672
aI350
aI1153
aI643
aI2704
aI3720
aI2190
aI2984
aI1466
aI4243
aI1284
aI1342
aI4643
aI587
aI233
aI1144
aI1381
aI1587
aI1606
aI1826
aI1888
aI1911
aI1937
aI1941
aI1991
aI1998
aI2013
aI2045
aI2059
aI2201
aI2630
aI2803
aI2816
aI2818
aI3138
aI3390
aI3531
aI3629
aI3646
aI3988
aI3991
aI4054
aI4559
aI4623
aI4707
aI4773
aI4824
aI4936
aI3310
aI4611
aI3299
aI2941
aI3951
aI1695
aI3737
aI3520
aI2272
aI1501
aI2262
aI2993
aI2577
aI3831
aI1739
aI3347
aI3572
aI4726
aI4784
aI3870
aI3122
aI2306
aI4906
aI4600
aI440
aI1235
aI2024
aI536
aI1016
aI1603
aI4506
aI2680
aI1216
aI2548
aI2443
aI61
aI3438
aI4863
aI1554
aI3506
aI2032
aI898
aI3571
aI4025
aI3948
aI1604
aI1105
aI4699
aI2643
aI4007
aI1495
aI4149
aI4610
aI3316
aI78
aI1825
aI2199
aI4619
aI4179
aI3467
aI3713
aI4785
aI4825
aI766
aI807
aI4898
aI3044
aI1750
aI260
aI1254
aI1041
aI519
aI980
aI3896
aI555
aI3555
aI687
aI1160
aI1665
aI1785
aI4908
aI2209
aI259
aI3075
aI2482
aI48
aI421
aI380
aI3623
aI3682
aI3996
aI4762
aI4901
aI3543
aI4733
aI2390
aI3570
aI842
aI3675
aI2769
aI1921
aI1961
aI2346
aI2227
aI2628
aI2
aI771
aI351
aI378
aI1579
aI809
aI3914
aI2578
aI2133
aI4918
aI3580
aI4017
aI410
aI4518
aI4722
aI120
aI655
aI3281
aI3337
aI3432
aI1931
aI4512
aI4515
aI4026
aI3888
aI4171
aI1212
aI1808
aI735
aI2288
aI2753
aI2754
aI2868
aI3818
aI4787
aI4822
aI2161
aI2540
aI3166
aI3473
aI3606
aI4858
aI438
aI2407
aI335
aI2107
aI3400
aI2445
aI2815
aI1098
aI4754
aI2978
aI2807
aI504
aI3612
aI187
aI1511
aI2017
aI3721
aI1899
aI1635
aI1783
aI2141
aI3990
aI2404
aI2359
aI670
aI3172
aI3517
aI636
aI4089
aI635
aI2568
aI2571
aI2573
aI2788
aI1849
aI256
aI1956
aI2092
aI645
aI1716
aI2060
aI4872
aI3015
aI267
aI4848
aI649
aI2504
aI4159
aI4902
aI1108
aI4435
aI1063
aI4509
aI629
aI4041
aI3219
aI3727
aI2347
aI3405
aI3476
aI4429
aI487
aI1834
aI1981
aI2345
aI3732
aI3950
aI4596
aI4635
aI4759
aI710
aI729
aI799
aI2480
aI4605
aI2175
aI3595
aI3206
aI501
aI3703
aI1515
aI229
aI2386
aI4728
aI3532
aI408
aI4621
aI4114
aI1892
aI3670
aI2654
aI3838
aI1331
aI4695
aI1
aI4531
aI1474
aI3047
aI3809
aI1768
aI1910
aI2988
aI4048
aI650
aI303
aI2042
aI688
aI4086
aI4855
aI1396
aI3601
aI190
aI3342
aI1557
aI845
aI1946
aI2432
aI4907
aI31
aI1676
aI250
aI4247
aI4248
aI1880
aI3308
aI4741
aI1120
aI2038
aI2276
aI4033
aI2615
aI116
aI223
aI1970
aI2174
aI2090
aI2134
aI340
aI640
aI4127
aI2567
aI1475
aI3497
aI4058
aI1293
aI2645
aI2565
aI3524
aI3630
aI662
aI402
aI1978
aI109
aI1858
aI2271
aI3693
aI1719
aI1177
aI3645
aI4694
aI121
aI2225
aI947
aI2869
aI3268
aI4790
aI2311
aI3691
aI626
aI2462
aI3741
aI4703
aI2382
aI4917
aI4589
aI2892
aI795
aI3875
aI1205
aI3491
aI704
aI576
aI1075
aI2549
aI1772
aI758
aI2493
aI4827
aI4743
aI473
aI4570
aI2631
aI4560
aI2278
aI4779
aI428
aI1355
aI1813
aI4739
aI2334
aI2205
aI578
aI4626
aI87
aI1969
aI1527
aI3790
aI1930
aI1005
aI546
aI4523
aI3486
aI1664
aI2111
aI2512
aI3339
aI4494
aI339
aI154
aI3958
aI435
aI2702
aI1478
aI4689
aI3908
aI2774
aI537
aI625
aI646
aI3461
aI3564
aI3273
aI3274
aI2254
aI2902
aI4691
aI3661
aI941
aI3657
aI1561
aI1640
aI3006
aI3507
aI3559
aI4424
aI4810
aI430
aI1155
aI4151
aI160
aI4486
aI4458
aI4180
aI2569
aI2572
aI431
aI2351
aI1176
aI3847
aI840
aI1687
aI2361
aI744
aI1560
aI1781
aI1553
aI1615
aI1942
aI4781
aI51
aI2142
aI1395
aI3952
aI3013
aI3757
aI1728
aI3649
aI3591
aI4214
aI4875
aI3459
aI3535
aI4688
aI1633
aI716
aI272
aI1842
aI2789
aI1314
aI1590
aI1889
aI2005
aI4651
aI2698
aI416
aI1819
aI1757
aI1851
aI4667
aI637
aI94
aI3637
aI2357
aI1285
aI4320
aI3529
aI3114
aI1977
aI3425
aI1975
aI4620
aI4885
aI3761
aI2247
aI3556
aI4545
aI21
aI1412
aI839
aI4469
aI1326
aI622
aI4604
aI4009
aI145
aI4113
aI239
aI2028
aI3504
aI2575
aI3307
aI3266
aI1425
aI4040
aI3609
aI2198
aI1543
aI2418
aI413
aI846
aI4522
aI3331
aI1219
aI4102
aI290
aI4519
aI3376
aI204
aI3910
aI3994
aI262
aI294
aI663
aI1578
aI1875
aI1894
aI2273
aI2491
aI3640
aI3687
aI4185
aI4430
aI4547
aI4665
aI4668
aI3824
aI3763
aI3046
aI4657
aI1993
aI2414
aI1115
aI3287
aI2924
aI4049
aI472
aI3482
aI4505
aI2039
aI4508
aI734
aI3684
aI691
aI2933
aI3490
aI3174
aI4568
aI1979
aI2101
aI1788
aI2699
aI3581
aI4630
aI456
aI1150
aI4588
aI4135
aI2317
aI1650
aI3300
aI1149
aI689
aI2263
aI3170
aI3636
aI3970
aI2066
aI1174
aI151
aI2773
aI2602
aI1754
aI2371
aI1853
aI3770
aI797
aI2207
aI2230
aI86
aI3292
aI4826
aI314
aI749
aI3391
aI3430
aI1460
aI1769
aI2077
aI1901
aI3596
aI614
aI3965
aI1678
aI4128
aI529
aI531
aI4811
aI2394
aI4483
aI850
aI3802
aI2110
aI477
aI621
aI838
aI2160
aI4586
aI1368
aI4778
aI1422
aI4719
aI3963
aI1428
aI2127
aI2248
aI1611
aI2909
aI1359
aI2415
aI3833
aI79
aI3364
aI4862
aI227
aI818
aI1479
aI1789
aI1836
aI2962
aI3370
aI3669
aI2256
aI2965
aI471
aI3455
aI4708
aI2888
aI641
aI2912
aI3317
aI774
aI1156
aI2887
aI3783
aI3325
aI1583
aI1898
aI2088
aI1545
aI1520
aI2249
aI4706
aI4732
aI1882
aI4836
aI2559
aI4893
aI329
aI4084
aI2741
aI73
aI1320
aI1718
aI3528
aI3351
aI3607
aI4034
aI2053
aI3938
aI2147
aI2481
aI2555
aI3103
aI3796
aI441
aI2102
aI123
aI453
aI1938
aI1158
aI2460
aI474
aI193
aI70
aI612
aI2717
aI1294
aI4871
aI1675
aI2996
aI3245
aI297
aI1686
aI3747
aI3748
aI2641
aI1524
aI1444
aI2616
aI1707
aI3360
aI785
aI2349
aI3752
aI143
aI4443
aI1682
aI4692
aI2344
aI4614
aI2526
aI2589
aI3322
aI4550
aI4446
aI3738
aI4439
aI3525
aI3696
aI1067
aI1563
aI147
aI1055
aI1815
aI3024
aI3201
aI434
aI1999
aI4622
aI1199
aI2355
aI3328
aI2651
aI405
aI196
aI2688
aI2689
aI4502
aI4782
aI1776
aI563
aI3753
aI81
aI1110
aI3954
aI2783
aI4065
aI4326
aI1187
aI1261
aI1627
aI3118
aI3119
aI3604
aI4940
aI4833
aI4926
aI22
aI2471
aI3997
aI1003
aI330
aI4686
aI202
aI1129
aI4015
aI3319
aI1439
aI3955
aI226
aI817
aI2316
aI1203
aI3631
aI956
aI1870
aI2006
aI1846
aI786
aI1082
aI3483
aI1405
aI780
aI4479
aI2185
aI1657
aI2925
aI3048
aI3168
aI3474
aI4035
aI1346
aI2659
aI1247
aI4669
aI264
aI281
aI457
aI1307
aI451
aI3834
aI2677
aI2214
aI4925
aI1833
aI825
aI564
aI4170
aI1685
aI3585
aI2864
aI4006
aI4587
aI4641
aI318
aI2332
aI4882
aI1881
aI1960
aI321
aI3463
aI4613
aI1290
aI3901
aI342
aI96
aI4746
aI4473
aI3797
aI2804
aI610
aI3137
aI3454
aI4670
aI1848
aI3959
aI2497
aI2109
aI1647
aI1799
aI1296
aI4253
aI1871
aI1221
aI3433
aI4864
aI803
aI3313
aI4556
aI3883
aI112
aI1711
aI4111
aI2625
aI2626
aI1760
aI1135
aI252
aI1283
aI170
aI1710
aI4488
aI4679
aI1683
aI4016
aI4051
aI4130
aI4650
aI1124
aI2976
aI1471
aI4929
aI3890
aI3329
aI511
aI523
aI2197
aI1803
aI2287
aI1585
aI1200
aI4817
aI4597
aI680
aI1689
aI3686
aI496
aI3318
aI582
aI1344
aI4442
aI4845
aI206
aI2634
aI2372
aI1617
aI1700
aI1642
aI1714
aI3247
aI3599
aI1756
aI4631
aI3771
aI2342
aI2362
aI4867
aI2298
aI3344
aI3444
aI2672
aI58
aI3003
aI718
aI4166
aI2163
aI2348
aI3667
aI174
aI4675
aI2157
aI76
aI4852
aI2461
aI3600
aI3999
aI307
aI1924
aI4067
aI4572
aI114
aI2691
aI4451
aI4452
aI4453
aI4456
aI2040
aI2087
aI2593
aI3971
aI3423
aI811
aI4423
aI2416
aI3233
aI3608
aI4510
aI4107
aI1202
aI1526
aI2265
aI2942
aI767
aI773
aI1345
aI4661
aI3208
aI1053
aI1787
aI4660
aI4238
aI4259
aI4516
aI4441
aI1026
aI1433
aI2356
aI1194
aI66
aI2327
aI3807
aI524
aI525
aI4285
aI411
aI2001
aI4497
aI467
aI1336
aI3653
aI4937
aI3389
aI4578
aI4005
aI1564
aI4905
aI153
aI3301
aI4421
aI2266
aI2894
aI2218
aI1692
aI3962
aI2679
aI1621
aI1713
aI2378
aI199
aI1674
aI4250
aI1771
aI1384
aI4134
aI2950
aI2678
aI2714
aI1251
aI3395
aI1839
aI4094
aI1382
aI2330
aI1034
aI2310
aI3621
aI694
aI1252
aI3626
aI4916
aI678
aI3778
aI565
aI566
aI1036
aI1663
aI4899
aI3554
aI2305
aI2425
aI2599
aI130
aI3358
aI4606
aI2409
aI2284
aI32
aI1794
aI4892
aI4932
aI4933
aI810
aI2292
aI4912
aI2136
aI2541
aI4895
aI4448
aI942
aI4306
aI1786
aI2033
aI288
aI59
aI1104
aI16
aI17
aI1741
aI238
aI3366
aI201
aI686
aI3872
aI2408
aI3759
aI4904
aI3534
aI4737
aI4742
aI2388
aI676
aI2083
aI617
aI1959
aI548
aI1119
aI2030
aI1797
aI955
aI4484
aI1303
aI1245
aI1426
aI4290
aI298
aI3515
aI2832
aI854
aI2787
aI4571
aI2335
aI1964
aI1702
aI4498
aI2285
aI2472
aI4756
aI4783
aI2015
aI4110
aI1732
aI4729
aI1651
aI764
aI4432
aI2923
aI1723
aI3821
aI1715
aI1773
aI1141
aI1509
aI1597
aI3957
aI2286
aI4237
aI3902
aI2337
aI738
aI3216
aI1575
aI3403
aI3488
aI2587
aI4856
aI1197
aI2727
aI1447
aI3917
aI1272
aI1311
aI2282
aI3772
aI2738
aI214
aI2743
aI679
aI2550
aI4003
aI2034
aI1013
aI3793
aI4507
aI618
aI124
aI1613
aI4527
aI1918
aI574
aI2566
aI4642
aI4796
aI2771
aI1419
aI2957
aI1366
aI545
aI4788
aI133
aI4709
aI1378
aI4593
aI1948
aI395
aI899
aI1517
aI248
aI3861
aI1929
aI3419
aI1237
aI2379
aI1572
aI466
aI4136
aI1903
aI2715
aI984
aI1878
aI1161
aI2468
aI3903
aI1862
aI1643
aI485
aI2991
aI429
aI52
aI1926
aI1116
aI4870
aI833
aI2011
aI1596
aI1997
aI3843
aI2980
aI1449
aI1227
aI1228
aI2193
aI1631
aI325
aI4771
aI1406
aI2483
aI1658
aI1907
aI2484
aI4723
aI3489
aI4655
aI319
aI539
aI3014
aI934
aI2203
aI4525
aI2212
aI1140
aI104
aI4748
aI2130
aI1691
aI1565
aI1902
aI4763
aI4292
aI4293
aI4294
aI4793
aI3539
aI4789
aI1093
aI2545
aI3353
aI790
aI465
aI4877
aI4445
aI2413
aI3610
aI41
aI1962
aI1660
aI1669
aI4602
aI752
aI4772
aI3881
aI970
aI1218
aI334
aI737
aI1215
aI4673
aI1456
aI1457
aI973
aI2073
aI137
aI4676
aI4008
aI3314
aI4152
aI3627
aI1455
aI1807
aI3931
aI4693
aI346
aI4567
aI1182
aI1286
aI1953
aI1021
aI1622
aI581
aI2128
aI4830
aI4582
aI2221
aI979
aI1392
aI1822
aI4740
aI4745
aI97
aI1440
aI2241
aI4029
aI1904
aI3398
aI3550
aI4891
aI1172
aI2181
aI230
aI1493
aI1697
aI1980
aI4487
aI2229
aI3049
aI2450
aI2215
aI225
aI1239
aI4517
aI725
aI142
aI1845
aI2948
aI189
aI4828
aI383
aI336
aI4154
aI829
aI2737
aI2953
aI2770
aI134
aI1806
aI2154
aI3394
aI4663
aI4677
aI3283
aI482
aI712
aI3019
aI3503
aI3527
aI2080
aI991
aI1811
aI2387
aI3668
aI4696
aI4144
aI3334
aI4212
aI1755
aI192
aI3349
aI1576
aI4752
aI1012
aI3332
aI2210
aI2211
aI2396
aI2627
aI3808
aI1364
aI964
aI3663
aI1249
aI337
aI1385
aI1749
aI4633
aI3775
aI1742
aI4844
aI2834
aI2835
aI2836
aI1817
aI144
aI1983
aI3132
aI583
aI961
aI2085
aI951
aI1800
aI2955
aI3296
aI1574
aI2434
aI2417
aI311
aI1256
aI1126
aI3542
aI1096
aI1102
aI940
aI1246
aI1325
aI1333
aI3428
aI4760
aI4777
aI4803
aI4804
aI4145
aI3812
aI2977
aI3404
aI3918
aI2155
aI3904
aI4636
aI632
aI3622
aI2374
aI3204
aI1823
aI1605
aI4160
aI2608
aI4888
aI2648
aI2299
aI2300
aI1369
aI697
aI585
aI3217
aI3218
aI1831
aI3327
aI708
aI2354
aI2314
aI2152
aI3779
aI2333
aI4222
aI291
aI3449
aI228
aI1214
aI1570
aI2177
aI3723
aI3993
aI936
aI4096
aI3286
aI1386
aI619
aI3450
aI4024
aI4202
aI1966
aI4853
aI1132
aI3335
aI3897
aI634
aI2216
aI1348
aI820
aI1972
aI3858
aI800
aI1350
aI3678
aI3729
aI5
aI1790
aI208
aI1636
aI1694
aI1630
aI633
aI4300
aI1198
aI3925
aI4325
aI475
aI3356
aI3983
aI4019
aI822
aI287
aI3866
aI106
aI2014
aI1857
aI2611
aI2331
aI3823
aI1620
aI3722
aI1204
aI4028
aI1299
aI1488
aI965
aI2562
aI1767
aI3811
aI1496
aI1213
aI3248
aI3755
aI4251
aI1653
aI1722
aI3
aI448
aI1637
aI1672
aI1737
aI3367
aI3566
aI3602
aI3819
aI3852
aI4511
aI4808
aI4809
aI4931
aI2610
aI1677
aI4865
aI3583
aI592
aI3560
aI557
aI4543
aI2692
aI140
aI1506
aI4183
aI4226
aI4608
aI2574
aI4496
aI215
aI4030
aI856
aI2974
aI2821
aI2823
aI590
aI591
aI1288
aI2474
aI1269
aI2291
aI1275
aI1832
aI2365
aI2062
aI4020
aI2966
aI4832
asS'hkpr_apprx'
p3
(lp4
I1188
aI1234
aI1117
aI2124
aI1448
aI2125
aI1462
aI1347
aI1447
aI1279
aI1856
aI1599
aI2012
aI1855
aI2000
aI1460
aI1435
aI1951
aI1953
aI1147
aI1339
aI2079
aI1309
aI1584
aI1341
aI2122
aI2070
aI2066
aI2073
aI1312
aI1679
aI1340
aI2189
aI2195
aI1311
aI2198
aI1177
aI2134
aI2090
aI2121
aI1094
aI1842
aI2150
aI1093
aI2055
aI2120
aI2077
aI1865
aI1083
aI1589
aI1164
aI2184
aI2107
aI2084
aI1276
aI1089
aI1467
aI1489
aI2061
aI2138
aI1446
aI1461
aI2101
aI1310
aI1920
aI1540
aI2085
aI1556
aI488
aI1717
aI1095
aI1753
aI2140
aI1316
aI1814
aI1466
aI1175
aI1817
aI1357
aI1463
aI2185
aI1101
aI2137
aI1209
aI2139
aI1201
aI2082
aI1171
aI1436
aI1278
aI1170
aI1169
aI1484
aI1159
aI1152
aI1531
asS'hkpr_exact'
p5
(lp6
I2134
aI2090
aI2073
aI2101
aI2094
aI2083
aI2123
aI2144
aI2055
aI2108
aI2072
aI2074
aI2070
aI2122
aI2084
aI2085
aI2081
aI2082
aI2107
aI2105
aI2095
aI2079
aI2056
aI2143
aI1460
aI1842
aI2066
aI2137
aI2140
aI2187
aI2186
aI2061
aI1953
aI2121
aI2172
aI2171
aI2192
aI1951
aI1856
aI2191
aI2036
aI1855
aI2012
aI1311
aI1295
aI1503
aI2077
aI1083
aI1089
aI1556
aI1584
aI1104
aI1446
aI1312
aI1599
aI2000
aI1347
aI1447
aI2165
aI2166
aI2071
aI2195
aI1095
aI1188
aI2091
aI1233
aI1753
aI2168
aI1189
aI2190
aI1234
aI2169
aI2170
aI2159
aI1589
aI2096
aI2135
aI1093
aI1117
aI1461
aI1386
aI1094
aI1463
aI2150
aI1865
aI1717
aI2149
aI1448
aI1679
aI1387
aI1817
aI1462
aI1341
aI1164
aI1436
aI2124
aI2125
aI2184
aI2189
aI1435
aI1265
aI1177
aI1279
aI1209
aI1339
aI1316
aI2136
aI1352
aI1278
aI1464
aI1465
aI1466
aI1467
aI2198
aI2185
aI1908
aI1276
aI2138
aI1309
aI1183
aI2064
aI2063
aI2120
aI2062
aI1489
aI2179
aI488
aI2139
aI1101
aI1277
aI1100
aI1675
aI1706
aI2007
aI1356
aI1310
aI1558
aI1201
aI1335
aI1175
aI1814
aI1151
aI1357
aI2176
aI2156
aI2203
aI1340
aI1473
aI1533
aI1530
aI1536
aI1540
aI1178
aI2201
aI2076
aI1920
aI1152
aI1147
aI2131
aI1844
aI1170
aI1210
aI1211
aI1321
aI2173
aI1522
aI2145
aI2200
aI2132
aI1171
aI1169
aI1207
aI1531
aI1146
aI1412
aI1411
aI1148
aI1415
aI1887
aI2103
aI1484
aI1134
aI1610
aI1485
aI2157
aI1414
aI1416
aI1109
aI1403
aI1505
aI1245
aI1875
aI1681
aI1678
aI1194
aI1195
aI2037
aI1519
aI1521
aI1752
aI1173
aI1471
aI1614
aI1520
aI2199
aI1989
aI1866
aI1206
aI2188
aI1649
aI1588
aI1452
aI2068
aI1468
aI1654
aI1587
aI1954
aI1867
aI2045
aI2044
aI1874
aI1359
aI1322
aI1883
aI1486
aI1487
aI1495
aI1846
aI1705
aI1748
aI1719
aI2204
aI1919
aI1159
aI1541
aI1557
aI1363
aI1158
aI1712
aI1142
aI1141
aI1370
aI1849
aI1904
aI1747
aI2008
aI1167
aI1853
aI1905
aI1684
aI2202
aI1770
aI1777
aI1371
aI1539
aI1538
aI1074
aI2183
aI1076
aI1166
aI1168
aI1474
aI1475
aI1362
aI1075
aI1646
aI1864
aI1445
aI1284
aI1835
aI1361
aI1165
aI1212
aI1360
aI1507
aI2178
aI1140
aI2042
aI2015
aI1217
aI1444
aI1506
aI1514
aI1413
aI1620
aI1332
aI285
aI1458
aI1775
aI1345
aI1617
aI1700
aI1319
aI1344
aI1318
aI1273
aI1952
aI1836
aI2193
aI2180
aI1650
aI2177
aI1438
aI2181
aI1172
aI1213
aI1526
aI1929
aI1527
aI1061
aI1062
aI1950
aI1818
aI1619
aI1811
aI1320
aI1765
aI1450
aI1425
aI1682
aI1564
aI1440
aI1938
aI1788
aI1274
aI1391
aI1390
aI1926
aI1569
aI1060
aI1272
aI1834
aI1439
aI1928
aI1380
aI1884
aI2002
aI1616
aI1542
aI1626
aI1515
aI1586
aI1394
aI2003
aI2035
aI1525
aI1940
aI1959
aI1939
aI1882
aI1346
aI2016
aI1897
aI1702
aI1358
aI1655
aI1656
aI1893
aI1644
aI1502
aI2027
aI1301
aI1751
aI1673
aI1761
aI2167
aI2030
aI1334
aI1687
aI1516
aI1218
aI1917
aI1688
aI1925
aI1396
aI1943
aI255
aI1395
aI1868
aI1999
aI1090
aI1909
aI1070
aI1108
aI1240
aI1496
aI1333
aI1244
aI306
aI2010
aI1757
aI2005
aI1735
aI1247
aI1973
aI2009
aI2026
aI1385
aI1630
aI284
aI254
aI2017
aI283
aI2018
aI1080
aI1384
aI1366
aI1631
aI1990
aI1895
aI1524
aI1091
aI366
aI1729
aI316
as.