(dp0
S'pagerank'
p1
(lp2
I1189
aI1188
aI1234
aI1117
aI1233
aI2195
asS'hkpr_apprx'
p3
(lp4
I1188
aI1234
aI1117
aI1448
aI2125
aI2124
aI1462
aI1347
aI1447
aI1279
aI1855
aI1856
aI2012
aI1460
aI1435
aI1599
aI2000
aI1951
aI1147
aI1953
aI1339
aI2079
aI1309
aI1341
aI1094
aI1584
aI1312
aI2122
aI2066
aI1340
aI2189
aI2195
aI1311
aI2073
aI2084
aI1842
aI2055
aI2070
aI2090
aI1093
aI2150
aI2184
aI2198
aI1177
aI1753
aI2077
aI2121
aI2134
aI1679
aI1467
aI2120
aI1446
aI2107
aI1089
aI2137
aI1466
aI488
aI1276
aI1095
aI2101
aI1164
aI1461
aI2085
aI1101
aI2138
aI2140
aI1083
aI1175
aI1316
aI1489
aI1556
aI1310
aI1589
aI1920
aI2185
aI1865
aI1540
aI2082
aI1357
aI1486
aI2139
aI1436
aI1201
aI1531
aI1278
asS'hkpr_exact'
p5
(lp6
I4350
aI4379
aI4351
aI4380
aI4416
aI4388
aI4358
aI4371
aI4359
aI4397
aI4364
aI4403
aI4383
aI4382
aI4355
aI4394
aI4333
aI4372
aI4353
aI4329
aI4396
aI4331
aI4412
aI4356
aI4389
aI4390
aI4377
aI4348
aI4393
aI4357
aI4391
aI4407
aI4417
aI4328
aI4395
aI4405
aI4399
aI4373
aI4343
aI4418
aI4361
aI4360
aI4346
aI4339
aI4406
aI4419
aI4409
aI4340
aI4365
aI4345
aI4336
aI4400
aI4338
aI4342
aI4411
aI4347
aI4368
aI4332
aI4375
aI4334
aI4381
aI4335
aI4398
aI4414
aI4404
aI4387
aI4327
aI4354
aI4349
aI4402
aI4410
aI4385
aI4413
aI4408
aI4337
aI4330
aI4344
aI4401
aI4366
aI4367
aI4384
aI4352
aI4386
aI4392
aI4376
aI4374
aI4370
aI4369
aI4378
aI4415
aI4341
aI4363
aI263
aI321
aI320
aI4362
aI319
aI370
aI367
aI251
aI322
aI289
aI253
aI294
aI376
aI300
aI252
aI265
aI323
aI297
aI308
aI380
aI331
aI340
aI341
aI346
aI268
aI269
aI349
aI350
aI369
aI266
aI382
aI281
aI264
aI372
aI260
aI267
aI272
aI334
aI270
aI273
aI275
aI271
aI324
aI274
aI325
aI261
aI347
aI348
aI352
aI287
aI291
aI292
aI286
aI276
aI351
aI362
aI359
aI361
aI262
aI244
aI4433
aI4431
aI358
aI309
aI344
aI345
aI373
aI335
aI374
aI4425
aI353
aI375
aI278
aI378
aI4430
aI371
aI4426
aI332
aI243
aI256
aI343
aI246
aI355
aI342
aI354
aI259
aI293
aI368
aI310
aI298
aI241
aI311
aI257
aI333
aI277
aI245
aI247
aI381
aI4428
aI326
aI239
aI356
aI314
aI360
aI377
aI357
aI330
aI248
aI250
aI249
aI312
aI280
aI315
aI328
aI379
aI299
aI301
aI279
aI327
aI313
aI302
aI363
aI364
aI295
aI242
aI258
aI240
aI282
aI365
aI329
aI304
aI296
aI305
aI337
aI366
aI307
aI303
aI283
aI284
aI254
aI316
aI306
aI255
aI4423
aI238
aI285
aI339
aI338
aI336
aI318
aI288
aI290
aI4424
aI4422
aI4432
aI4434
aI4435
aI1178
aI4420
aI4421
aI4436
aI1265
aI1177
aI4429
aI4427
aI4443
aI4442
aI1387
aI317
aI1386
aI2169
aI2170
aI2168
aI2096
aI2159
aI2190
aI2135
aI2091
aI2165
aI2166
aI1093
aI2071
aI1095
aI1094
aI4438
aI4439
aI4440
aI4441
aI1503
aI1295
aI1083
aI1446
aI2077
aI2172
aI2171
aI2192
aI2191
aI2036
aI1311
aI1312
aI1089
aI1447
aI4437
aI1556
aI2195
aI1347
aI1842
aI2070
aI2122
aI2079
aI2101
aI2073
aI2095
aI2074
aI2134
aI2090
aI2072
aI2108
aI2094
aI2083
aI2055
aI2123
aI2144
aI2107
aI2084
aI2081
aI2082
aI2105
aI2085
aI1460
aI2056
aI2143
aI2137
aI2061
aI2066
aI2140
aI2187
aI2186
aI2121
aI1953
aI1104
aI1340
aI1753
aI1188
aI1189
aI1117
aI1233
aI1339
aI1234
aI1341
aI1856
aI1951
aI1448
aI1584
aI2012
aI1855
aI1463
aI1461
aI1865
aI1599
aI2000
aI1462
aI1589
aI1164
aI1436
aI1717
aI2184
aI2150
aI2189
aI1435
aI2149
aI1679
aI1279
aI1817
aI1352
aI1465
aI1464
aI1466
aI1278
aI1908
aI1276
aI2062
aI2120
aI1209
aI1675
aI1316
aI1706
aI2125
aI2124
aI1489
aI2179
aI2007
aI1100
aI1558
aI2138
aI1335
aI2198
aI1356
aI2185
aI1151
aI2139
aI1310
aI1309
aI1467
aI1101
aI2176
aI1540
aI1473
aI1183
aI2131
aI1536
aI1533
aI2136
aI1357
aI1530
aI1937
aI1277
aI1936
aI2132
aI2076
aI2145
aI488
aI1712
aI1894
aI1557
aI1904
aI2008
aI1211
aI1846
aI1747
aI1210
aI2183
aI1895
aI1887
aI2103
aI2178
aI2173
aI1384
aI1119
aI1883
aI1654
aI1201
aI2177
aI1385
aI1614
aI1247
aI1748
aI2157
aI1752
aI1175
aI1688
aI2167
aI1954
aI1687
aI1673
aI1702
aI2003
aI1655
aI1656
aI1928
aI1897
aI1586
aI1218
aI2068
aI1649
aI1626
aI2188
aI1471
aI1468
aI1152
aI1569
aI1109
aI1272
aI1564
aI1814
aI1950
aI1274
aI1118
aI1484
aI1363
aI1775
aI1173
aI2203
aI1450
aI1531
aI1919
aI1360
aI2064
aI2063
aI1682
aI1929
aI1273
aI1170
aI1834
aI1487
aI1495
aI1616
aI1938
aI1825
aI2002
aI1486
aI2156
aI1485
aI1542
aI1060
aI1171
aI1169
aI2035
aI1062
aI1061
aI1361
aI1751
aI1644
aI1920
aI1610
aI1444
aI1134
aI1172
aI2181
aI2180
aI2201
aI1836
aI1952
aI1318
aI1120
aI1344
aI1319
aI1617
aI1700
aI1345
aI1458
aI1620
aI1332
aI1844
aI1403
aI1370
aI1909
aI1140
aI1522
aI1321
aI1619
aI1362
aI1882
aI1445
aI1415
aI1146
aI1148
aI1411
aI1412
aI1956
aI1757
aI1147
aI1414
aI1416
aI1064
aI1176
aI2200
aI1245
aI1678
aI1505
aI1864
aI1194
aI1874
aI1519
aI1538
aI1539
aI1521
aI1371
aI1195
aI1911
aI1520
aI1639
aI1207
aI2092
aI1588
aI1160
aI1806
aI1587
aI1847
aI1875
aI1141
aI1681
aI1452
aI1322
aI1142
aI1867
aI2037
aI1866
aI1989
aI1206
aI2045
aI2044
aI1359
aI1270
aI1271
aI1634
aI2199
aI1331
aI1063
aI1158
aI1475
aI1301
aI1474
aI1613
aI1065
aI1719
aI1684
aI1159
aI1646
aI1809
aI1705
aI1835
aI1284
aI2042
aI1770
aI1905
aI1628
aI1849
aI1625
aI1429
aI1663
aI1765
aI2204
aI1541
aI1612
aI1526
aI1853
aI1212
aI1075
aI1926
aI1777
aI1336
aI1939
aI1337
aI1940
aI1076
aI1627
aI1358
aI1217
aI1781
aI1504
aI2027
aI1884
aI2004
aI1439
aI1074
aI1168
aI1166
aI1213
aI1320
aI1527
aI1440
aI1997
aI2193
aI1925
aI1516
aI1165
aI1425
aI1413
aI1390
aI1664
aI1811
aI1735
aI1560
aI2015
aI2202
aI1300
aI1729
aI1438
aI1346
aI1391
aI2016
aI1650
aI1428
aI1167
aI2075
aI1761
aI1366
aI2163
aI1807
aI1070
aI1181
aI1788
aI1081
aI1868
aI1943
aI1999
aI1917
aI2030
aI1800
aI1630
aI1893
aI1154
aI1674
aI1333
aI2026
aI1648
aI1607
aI1286
aI1502
aI1197
aI1959
aI2009
aI1990
aI1380
aI1568
aI1567
aI1973
aI1196
aI1566
aI2111
aI2005
aI1773
aI1631
aI2010
aI1941
aI1906
aI1395
aI1069
aI1396
aI1394
aI1676
aI1490
aI1515
aI1942
aI1334
aI1903
aI1496
aI1637
aI1737
aI2164
aI1240
aI1738
aI1818
aI1108
aI1080
aI1604
aI1677
aI1525
aI1514
aI1186
aI1636
aI1506
aI1559
aI1090
aI1577
aI1368
aI1824
aI1529
aI1975
aI1099
aI1967
aI1723
aI1949
aI1695
aI1715
aI1914
aI1528
aI1902
aI1694
aI1235
aI1618
aI1369
aI1762
aI1193
aI1130
aI1731
aI1570
aI2126
aI2069
aI1255
aI2018
aI1098
aI1823
aI1479
aI2112
aI1524
aI2017
aI1480
aI1498
aI1535
aI1968
aI2050
aI1144
aI1222
aI1254
aI1798
aI1632
aI1983
aI1229
aI1961
aI1236
aI1223
aI1091
aI1507
aI1497
aI1830
aI1408
aI1389
aI1351
aI1964
aI1552
aI2029
aI1470
aI2117
aI1251
aI1981
aI1220
aI1477
aI1843
aI1478
aI1087
aI1713
aI1410
aI1633
aI1237
aI1420
aI2113
aI1962
aI1813
aI2006
aI1732
aI1828
aI1710
aI2110
aI1998
aI1963
aI1608
aI1418
aI1597
aI1455
aI1598
aI1068
aI1067
aI1970
aI2011
aI1848
aI1457
aI1456
aI1419
aI1549
aI1980
aI1085
aI1686
aI1969
aI1454
aI1453
aI1603
aI1782
aI1084
aI1409
aI2197
aI2182
aI1066
aI1624
aI1113
aI1779
aI1268
aI1116
aI1759
aI1115
aI2130
aI2153
aI1758
aI1088
aI1472
aI1652
aI1986
aI1982
aI1269
aI2128
aI1492
aI1698
aI1886
aI2194
aI1551
aI1776
aI2086
aI1509
aI1510
aI1879
aI1734
aI1873
aI1493
aI1901
aI1543
aI1802
aI1602
aI2129
aI1086
aI1680
aI2051
aI1872
aI1699
aI2001
aI1290
aI1367
aI1993
aI1132
aI1871
aI1803
aI1605
aI1977
aI1565
aI2043
aI1643
aI1927
aI2089
aI2114
aI1534
aI2151
aI1135
aI1820
aI1291
aI1852
aI1726
aI2054
aI1755
aI1611
aI2080
aI1994
aI1900
aI1756
aI1995
aI1388
aI1750
aI2118
aI2067
aI1082
aI2087
aI1683
aI2119
aI1778
aI1242
aI1850
aI1725
aI1945
aI1727
aI1264
aI1916
aI1647
aI1799
aI1451
aI1583
aI1923
aI1922
aI1746
aI1077
aI1262
aI1661
aI1224
aI1918
aI2148
aI1869
aI1691
aI1745
aI1499
aI1205
aI1609
aI2058
aI1898
aI2088
aI2106
aI1399
aI1760
aI1783
aI1690
aI2065
aI1810
aI1861
aI1133
aI2154
aI1728
aI1600
aI2098
aI1662
aI1401
aI2097
aI1261
aI1400
aI1263
aI1585
aI2133
aI1374
aI1594
aI1432
aI1972
aI1984
aI1692
aI1491
aI1372
aI1437
aI1601
aI1722
aI2147
aI2146
aI1500
aI1571
aI1621
aI2102
aI1718
aI2127
aI1955
aI1323
aI1877
aI1145
aI2014
aI1721
aI1623
aI1511
aI1821
aI1948
aI1838
aI1225
aI1974
aI1430
aI1935
aI2155
aI2034
aI1829
aI1966
aI1965
aI1707
aI1324
aI1931
aI2019
aI1550
aI2099
aI1622
aI1881
aI1244
aI1179
aI1105
aI2115
aI1831
aI1891
aI1449
aI1097
aI1365
aI1373
aI1591
aI1127
aI1126
aI1863
aI1128
aI1512
aI2116
aI1666
aI2020
aI1933
aI1827
aI1944
aI1660
aI1892
aI2022
aI1932
aI2046
aI1513
aI1574
aI1200
aI1431
aI1096
aI1930
aI1114
aI1325
aI1199
aI1180
aI1667
aI1285
aI1106
aI1736
aI1434
aI1837
aI2047
aI1764
aI1582
aI1427
aI1249
aI1581
aI2141
aI1822
aI1338
aI1880
aI1143
aI2196
aI1112
aI2049
aI1763
aI2109
aI1256
aI1157
aI1657
aI1139
aI1138
aI1876
aI1832
aI1579
aI1136
aI1198
aI1635
aI1749
aI1996
aI1934
aI1328
aI1326
aI1508
aI2053
aI1379
aI1638
aI2104
aI1092
aI1801
aI1348
aI1947
aI1137
aI1780
aI1860
aI1342
aI1544
aI1433
aI1885
aI1703
aI1305
aI1343
aI1306
aI1573
aI1288
aI1378
aI1580
aI1349
aI1107
aI1287
aI1289
aI1354
aI1353
aI1595
aI1547
aI1841
aI1293
aI1294
aI1392
aI1426
aI1629
aI1744
aI1733
aI1708
aI1103
aI1987
aI1327
aI1364
aI1548
aI1870
aI1792
aI1791
aI2052
aI2024
aI1793
aI2025
aI1555
aI1079
aI1741
aI1078
aI1704
aI1724
aI1976
aI1924
aI1795
aI1350
aI1303
aI1651
aI1304
aI1797
aI1606
aI1645
aI2100
aI1709
aI1743
aI1578
aI1772
aI2161
aI2160
aI1985
aI2152
aI1252
aI2162
aI1185
aI1442
aI1296
aI2078
aI1742
aI1250
aI1561
aI1203
aI1593
aI1102
aI1878
aI1596
aI2038
aI1796
aI1960
aI1958
aI1226
aI1899
aI1537
aI2040
aI1862
aI2039
aI1545
aI1253
aI1665
aI1771
aI1653
aI1946
aI1575
aI1790
aI1915
aI2033
aI1833
aI1769
aI1754
aI2032
aI1685
aI1658
aI1669
aI2041
aI1988
aI1494
aI1819
aI1441
aI1572
aI1443
aI1670
aI1693
aI1907
aI1858
aI1794
aI1786
aI2023
aI1424
aI1202
aI1129
aI2021
aI1815
aI1740
aI1768
aI1697
aI1840
aI1859
aI2031
aI1808
aI1668
aI1839
aI1890
aI1523
aI2093
aI2174
aI2142
aI2175
aI1720
aI1957
aI1554
aI1979
aI1501
aI1978
aI1317
aI1208
aI1110
aI1111
aI1313
aI1187
aI1281
aI1459
aI1280
aI1204
aI1910
aI1576
aI1215
aI1216
aI1785
aI1297
aI1266
aI1469
aI1267
aI1739
aI1161
aI2013
aI1671
aI1789
aI1672
aI1816
aI1714
aI1259
aI1260
aI1315
aI1072
aI1314
aI1992
aI1854
aI1590
aI1889
aI1124
aI1716
aI1787
aI1896
aI1563
aI1857
aI1711
aI1689
aI1642
aI1921
aI1804
aI1156
aI1640
aI1912
aI1766
aI1417
aI1488
aI1767
aI1219
aI1221
aI1991
aI1971
aI1155
aI1073
aI1258
aI1292
aI1375
aI1376
aI1784
aI1421
aI422
aI1422
aI1774
aI810
aI811
aI1123
aI822
aI1257
aI1407
aI1406
aI1214
aI1405
aI410
aI411
aI458
aI461
aI434
aI435
aI792
aI1153
aI793
aI1191
aI1730
aI809
aI1913
aI1845
aI1190
aI1248
aI1423
aI1192
aI439
aI1246
aI412
aI794
aI808
aI473
aI1402
aI1182
aI1231
aI1377
aI438
aI801
aI800
aI401
aI403
aI402
aI1232
aI1398
aI796
aI795
aI804
aI1243
aI1230
aI1227
aI1228
aI2048
aI1592
aI1701
aI1282
aI1404
aI1393
aI1283
aI1397
aI1381
aI1382
aI471
aI472
aI1302
aI1239
aI1483
aI1238
aI1329
aI779
aI783
aI1330
aI1532
aI436
aI813
aI812
aI1298
aI2158
aI3
aI4931
aI4930
aI818
aI820
aI819
aI817
aI432
aI4937
aI764
aI774
aI1805
aI1150
aI4940
aI754
aI788
aI789
aI4935
aI4939
aI781
aI798
aI799
aI4932
aI4933
aI747
aI784
aI780
aI1383
aI4934
aI1299
aI1149
aI433
aI431
aI782
aI1562
aI1696
aI765
aI806
aI766
aI807
aI742
aI761
aI821
aI762
aI803
aI1826
aI759
aI1659
aI791
aI778
aI745
aI743
aI787
aI758
aI1615
aI760
aI404
aI405
aI1355
aI1275
aI409
aI1888
aI1546
aI1553
aI1121
aI1122
aI1071
aI406
aI460
aI1163
aI392
aI824
aI823
aI457
aI2028
aI814
aI756
aI746
aI741
aI2059
aI744
aI2057
aI2060
aI1241
aI390
aI391
aI768
aI769
aI772
aI1851
aI1812
aI1307
aI394
aI755
aI757
aI816
aI815
aI1641
aI1162
aI763
aI1131
aI466
aI442
aI1476
aI777
aI773
aI767
aI771
aI423
aI1308
aI797
aI770
aI740
aI785
aI440
aI441
aI739
aI786
aI751
aI775
aI748
aI750
aI388
aI430
aI805
aI1517
aI802
aI749
aI776
aI2417
aI417
aI416
aI469
aI1125
aI444
aI450
aI424
aI425
aI443
aI464
aI4936
aI4938
aI4929
aI4928
aI752
aI1518
aI468
aI414
aI753
aI790
aI2207
aI415
aI413
aI452
aI427
aI428
aI4927
aI2413
aI459
aI1174
aI462
as.