(dp0
S'pagerank'
p1
(lp2
I1189
aI1188
aI1234
aI1117
aI1233
aI2195
aI1461
aI1436
aI1463
aI1584
aI848
aI4224
aI4073
aI597
aI2694
aI4209
aI1738
aI4930
aI4203
aI3706
aI4078
aI4539
aI210
aI3480
aI3679
aI4157
aI3719
aI575
aI4175
aI4299
aI3562
aI917
aI918
aI4195
aI4098
aI1671
aI4210
aI3445
aI3710
aI1681
aI926
aI927
aI2431
aI2915
aI2982
aI3442
aI849
aI1778
aI4100
aI3530
aI4755
aI4143
aI2647
aI3740
aI2495
aI4155
aI1546
aI1645
aI1936
aI2228
aI2421
aI4823
aI3378
aI664
aI4184
aI4538
aI3007
aI4291
aI2979
aI4422
aI2506
aI3658
aI2842
aI4167
aI4475
aI4938
aI3579
aI4264
aI3641
aI3728
aI2656
aI3717
aI2479
aI4117
aI4124
aI1393
aI1582
aI1592
aI509
aI831
aI1639
aI3690
aI1608
aI1271
aI4780
aI274
aI1263
aI4092
aI3634
aI4427
aI4103
aI4165
aI994
aI1706
aI327
aI3694
aI2759
aI1222
aI1816
aI4284
aI1906
aI2180
aI4279
aI4791
aI3272
aI4182
aI3827
aI3853
aI4761
aI3083
aI3084
aI3085
aI3167
aI2828
aI2071
aI300
aI3590
aI4564
aI4681
aI3363
aI4526
aI3656
aI4697
aI2508
aI2516
aI1955
aI1083
aI1337
aI3541
aI4500
aI8
aI372
aI4055
aI3456
aI4181
aI236
aI2666
aI2895
aI2898
aI2899
aI4794
aI4246
aI3615
aI3545
aI4158
aI1840
aI2884
aI3576
aI2275
aI4426
aI1952
aI4520
aI933
aI4727
aI2711
aI4579
aI4583
aI2315
aI308
aI1940
aI4431
aI2990
aI449
aI3082
aI3087
aI3605
aI3815
aI4045
aI3431
aI4674
aI3136
aI357
aI3368
aI4591
aI1780
aI3088
aI4816
aI4935
aI2735
aI3660
aI4472
aI4645
aI2897
aI1566
aI4820
aI3135
aI221
aI3422
aI4131
aI4850
aI2799
aI1971
aI3229
aI2640
aI515
aI2963
aI1793
aI3880
aI4548
aI593
aI3089
aI1824
aI4700
aI4301
aI4462
aI3726
aI2939
aI1430
aI1206
aI4671
aI4683
aI2590
aI722
aI4786
aI4768
aI4798
aI1933
aI2044
aI3453
aI4698
aI4664
aI331
aI520
aI3969
aI3589
aI1480
aI4470
aI4513
aI2057
aI3992
aI911
aI1763
aI1843
aI2009
aI2746
aI2747
aI2752
aI2827
aI3023
aI3081
aI3537
aI3603
aI4638
aI1747
aI3662
aI4769
aI3518
aI946
aI4204
aI4554
aI1224
aI698
aI706
aI2970
aI3709
aI4528
aI2360
aI715
aI604
aI3665
aI772
aI594
aI2658
aI326
aI4792
aI2433
aI4454
aI4455
aI1264
aI1916
aI2010
aI129
aI2817
aI3350
aI1973
aI3650
aI4880
aI3072
aI2632
aI3468
aI4129
aI165
aI699
aI707
aI3523
aI361
aI224
aI3705
aI13
aI386
aI2893
aI3384
aI1847
aI3510
aI841
aI609
aI2938
aI3820
aI3943
aI2767
aI709
aI728
aI3798
aI1828
aI3859
aI4161
aI89
aI3320
aI3536
aI732
aI3086
aI2700
aI4193
aI3493
aI3494
aI3495
aI1071
aI2667
aI4433
aI1162
aI3973
aI338
aI54
aI4720
aI2106
aI4878
aI1437
aI1932
aI1628
aI1510
aI2896
aI4562
aI352
aI3101
aI3102
aI4549
aI276
aI3410
aI4637
aI3302
aI4640
aI324
aI1644
aI4818
aI696
aI3873
aI3027
aI1547
aI672
aI269
aI3355
aI561
aI1494
aI2729
aI216
aI292
aI234
aI535
aI2661
aI3611
aI4561
aI2366
aI2145
aI4097
aI491
aI3040
aI1985
aI4499
aI2397
aI461
aI1030
aI1812
aI1408
aI2162
aI4052
aI1965
aI3451
aI163
aI2267
aI358
aI4011
aI3708
aI4921
aI4585
aI2293
aI3745
aI1712
aI3427
aI99
aI1521
aI1136
aI2509
aI3031
aI3032
aI3462
aI4574
aI3923
aI4838
aI1581
aI3508
aI4146
aI720
aI2730
aI1319
aI396
aI1801
aI463
aI2644
aI4923
aI3736
aI34
aI2444
aI1765
aI2023
aI3009
aI3514
aI14
aI4503
aI2239
aI3414
aI4551
aI4859
aI2600
aI830
aI68
aI3411
aI4705
aI1895
aI658
aI3584
aI987
aI983
aI107
aI2093
aI4491
aI1947
aI3575
aI3746
aI4068
aI4770
aI4939
aI1181
aI1255
aI1270
aI1404
aI1618
aI1659
aI1703
aI1704
aI1735
aI1764
aI1837
aI1900
aI1913
aI1968
aI2048
aI2049
aI2112
aI2164
aI2226
aI2422
aI3338
aI3949
aI3982
aI4053
aI4629
aI4710
aI4724
aI4735
aI1967
aI4148
aI4252
aI630
aI530
aI528
aI2192
aI3521
aI3643
aI4854
aI2570
aI4106
aI2159
aI458
aI36
aI1667
aI3538
aI40
aI4108
aI2238
aI627
aI4913
aI1375
aI4704
aI29
aI4648
aI3817
aI3070
aI1729
aI422
aI4653
aI3002
aI711
aI2768
aI4834
aI442
aI3429
aI3711
aI2646
aI3188
aI3625
aI4061
aI1112
aI4734
aI1612
aI4060
aI4934
aI1142
aI3426
aI4540
aI4910
aI731
aI1588
aI2178
aI1122
aI2182
aI3568
aI2564
aI3786
aI1774
aI4534
aI1876
aI4563
aI242
aI88
aI798
aI4105
aI3464
aI47
aI177
aI3234
aI3251
aI2563
aI176
aI1409
aI2653
aI4566
aI648
aI3071
aI1398
aI3189
aI4625
aI1516
aI53
aI1766
aI2583
aI3197
aI162
aI1897
aI1709
aI1186
aI4609
aI1982
aI3557
aI4493
aI1795
aI1598
aI2321
aI1518
aI2004
aI1634
aI2500
aI4659
aI341
aI1492
aI3692
aI3187
aI3074
aI4576
aI1491
aI4654
aI1127
aI3588
aI1829
aI3196
aI4590
aI1528
aI3261
aI2340
aI4489
aI4687
aI4153
aI1190
aI3762
aI607
aI222
aI2660
aI2751
aI4911
aI27
aI166
aI1248
aI1470
aI1555
aI1652
aI1782
aI1830
aI1841
aI2200
aI2217
aI3998
aI4050
aI4713
aI4716
aI2949
aI4265
aI666
aI3090
aI3091
aI748
aI4137
aI589
aI3465
aI3739
aI1289
aI4751
aI3979
aI577
aI2303
aI1282
aI2686
aI3749
aI1804
aI3288
aI3289
aI4928
aI2464
aI3371
aI736
aI2052
aI3069
aI353
aI4767
aI4305
aI2401
aI247
aI2638
aI4109
aI3073
aI3985
aI4592
aI2985
aI702
aI19
aI2336
aI218
aI4504
aI161
aI377
aI412
aI1397
aI1696
aI1701
aI1745
aI1854
aI1990
aI2325
aI2748
aI2749
aI2750
aI2919
aI3475
aI3492
aI4428
aI4896
aI3654
aI4647
aI4776
aI4919
aI3513
aI184
aI765
aI806
aI4485
aI3401
aI843
aI1693
aI1616
aI4718
aI770
aI4747
aI2204
aI690
aI2031
aI4529
aI2439
aI3446
aI1513
aI526
aI1550
aI2463
aI644
aI286
aI1130
aI3975
aI4839
aI793
aI1358
aI1730
aI1734
aI1867
aI3597
aI4702
aI4731
aI4903
aI3810
aI1060
aI3511
aI1304
aI2649
aI1668
aI981
aI819
aI3416
aI4685
aI98
aI1371
aI4461
aI3522
aI647
aI4860
aI713
aI1081
aI2146
aI4840
aI4553
aI391
aI115
aI1607
aI1779
aI3544
aI4624
aI661
aI3758
aI309
aI122
aI1111
aI3294
aI3628
aI4056
aI3846
aI3343
aI1210
aI4415
aI1376
aI1743
aI3666
aI1260
aI136
aI2313
aI3635
aI1114
aI1996
aI2234
aI2245
aI4711
aI4714
aI4738
aI4851
aI1066
aI2363
aI4482
aI3651
aI733
aI1559
aI1571
aI2025
aI1001
aI1896
aI1442
aI2536
aI2502
aI4471
aI4672
aI350
aI1153
aI643
aI2704
aI3720
aI2190
aI2984
aI1466
aI4243
aI1284
aI1342
aI4643
aI587
aI233
aI1144
aI1381
aI1587
aI1606
aI1826
aI1888
aI1911
aI1937
aI1941
aI1991
aI1998
aI2013
aI2045
aI2059
aI2201
aI2630
aI2803
aI2816
aI2818
aI3138
aI3390
aI3531
aI3629
aI3646
aI3988
aI3991
aI4054
aI4559
aI4623
aI4707
aI4773
aI4824
aI4936
aI3310
aI4611
aI3299
aI2941
aI3951
aI1695
aI3737
aI3520
aI2272
aI1501
aI2262
aI2993
aI2577
aI3831
aI1739
aI3347
aI3572
aI4726
aI4784
aI3870
aI3122
aI2306
aI4906
aI4600
aI440
aI1235
aI2024
aI536
aI1016
aI1603
aI4506
aI2680
aI1216
aI2548
aI2443
aI61
aI3438
aI4863
aI1554
aI3506
aI2032
aI898
aI3571
aI4025
aI3948
aI1604
aI1105
aI4699
aI2643
aI4007
aI1495
aI4149
aI4610
aI3316
aI78
aI1825
aI2199
aI4619
aI4179
aI3467
aI3713
aI4785
aI4825
aI766
aI807
aI4898
aI3044
aI1750
aI260
aI1254
aI1041
aI519
aI980
aI3896
aI555
aI3555
aI687
aI1160
aI1665
aI1785
aI4908
aI2209
aI259
aI3075
aI2482
aI48
aI421
aI380
aI3623
aI3682
aI3996
aI4762
aI4901
aI3543
aI4733
aI2390
aI3570
aI842
aI3675
aI2769
aI1921
aI1961
aI2346
aI2227
aI2628
aI2
aI771
aI351
aI378
aI1579
aI809
aI3914
aI2578
aI2133
aI4918
aI3580
aI4017
aI410
aI4518
aI4722
aI120
aI655
aI3281
aI3337
aI3432
aI1931
aI4512
aI4515
aI4026
aI3888
aI4171
aI1212
aI1808
aI735
aI2288
aI2753
aI2754
aI2868
aI3818
aI4787
aI4822
aI2161
aI2540
aI3166
aI3473
aI3606
aI4858
aI438
aI2407
aI335
aI2107
aI3400
aI2445
aI2815
aI1098
aI4754
aI2978
aI2807
aI504
aI3612
aI187
aI1511
aI2017
aI3721
aI1899
aI1635
aI1783
aI2141
aI3990
aI2404
aI2359
aI670
aI3172
aI3517
aI636
aI4089
aI635
aI2568
aI2571
aI2573
aI2788
aI1849
aI256
aI1956
aI2092
aI645
aI1716
aI2060
aI4872
aI3015
aI267
aI4848
aI649
aI2504
aI4159
aI4902
aI1108
aI4435
aI1063
aI4509
aI629
aI4041
aI3219
aI3727
aI2347
aI3405
aI3476
aI4429
aI487
aI1834
aI1981
aI2345
aI3732
aI3950
aI4596
aI4635
aI4759
aI710
aI729
aI799
aI2480
aI4605
aI2175
aI3595
aI3206
aI501
aI3703
aI1515
aI229
aI2386
aI4728
aI3532
aI408
aI4621
aI4114
aI1892
aI3670
aI2654
aI3838
aI1331
aI4695
aI1
aI4531
aI1474
aI3047
aI3809
aI1768
aI1910
aI2988
aI4048
aI650
aI303
aI2042
aI688
aI4086
aI4855
aI1396
aI3601
aI190
aI3342
aI1557
aI845
aI1946
aI2432
aI4907
aI31
aI1676
aI250
aI4247
aI4248
aI1880
aI3308
aI4741
aI1120
aI2038
aI2276
aI4033
aI2615
aI116
aI223
aI1970
aI2174
aI2090
aI2134
aI340
aI640
aI4127
aI2567
aI1475
aI3497
aI4058
aI1293
aI2645
aI2565
aI3524
aI3630
aI662
aI402
aI1978
aI109
aI1858
aI2271
aI3693
aI1719
aI1177
aI3645
aI4694
aI121
aI2225
aI947
aI2869
aI3268
aI4790
aI2311
aI3691
aI626
aI2462
aI3741
aI4703
aI2382
aI4917
aI4589
aI2892
aI795
aI3875
aI1205
aI3491
aI704
aI576
aI1075
aI2549
aI1772
aI758
aI2493
aI4827
aI4743
aI473
aI4570
aI2631
aI4560
aI2278
aI4779
aI428
aI1355
aI1813
aI4739
aI2334
aI2205
aI578
aI4626
aI87
aI1969
aI1527
aI3790
aI1930
aI1005
aI546
aI4523
aI3486
aI1664
aI2111
aI2512
aI3339
aI4494
aI339
aI154
aI3958
aI435
aI2702
aI1478
aI4689
aI3908
aI2774
aI537
aI625
aI646
aI3461
aI3564
aI3273
aI3274
aI2254
aI2902
aI4691
aI3661
aI941
aI3657
aI1561
aI1640
aI3006
aI3507
aI3559
aI4424
aI4810
aI430
aI1155
aI4151
aI160
aI4486
aI4458
aI4180
aI2569
aI2572
aI431
aI2351
aI1176
aI3847
aI840
aI1687
aI2361
aI744
aI1560
aI1781
aI1553
aI1615
aI1942
aI4781
aI51
aI2142
aI1395
aI3952
aI3013
aI3757
aI1728
aI3649
aI3591
aI4214
aI4875
aI3459
aI3535
aI4688
aI1633
aI716
aI272
aI1842
aI2789
aI1314
aI1590
aI1889
aI2005
aI4651
aI2698
aI416
aI1819
aI1757
aI1851
aI4667
aI637
aI94
aI3637
aI2357
aI1285
aI4320
aI3529
aI3114
aI1977
aI3425
aI1975
aI4620
aI4885
aI3761
aI2247
aI3556
aI4545
aI21
aI1412
aI839
aI4469
aI1326
aI622
aI4604
aI4009
aI145
aI4113
aI239
aI2028
aI3504
aI2575
aI3307
aI3266
aI1425
aI4040
aI3609
aI2198
aI1543
aI2418
aI413
aI846
aI4522
aI3331
aI1219
aI4102
aI290
aI4519
aI3376
aI204
aI3910
aI3994
aI262
aI294
aI663
aI1578
aI1875
aI1894
aI2273
aI2491
aI3640
aI3687
aI4185
aI4430
aI4547
aI4665
aI4668
aI3824
aI3763
aI3046
aI4657
aI1993
aI2414
aI1115
aI3287
aI2924
aI4049
aI472
aI3482
aI4505
aI2039
aI4508
aI734
aI3684
aI691
aI2933
aI3490
aI3174
aI4568
aI1979
aI2101
aI1788
aI2699
aI3581
aI4630
aI456
aI1150
aI4588
aI4135
aI2317
aI1650
aI3300
aI1149
aI689
aI2263
aI3170
aI3636
aI3970
aI2066
aI1174
aI151
aI2773
aI2602
aI1754
aI2371
aI1853
aI3770
aI797
aI2207
aI2230
aI86
aI3292
aI4826
aI314
aI749
aI3391
aI3430
aI1460
aI1769
aI2077
aI1901
aI3596
aI614
aI3965
aI1678
aI4128
aI529
aI531
aI4811
aI2394
aI4483
aI850
aI3802
aI2110
aI477
aI621
aI838
aI2160
aI4586
aI1368
aI4778
aI1422
aI4719
aI3963
aI1428
aI2127
aI2248
aI1611
aI2909
aI1359
aI2415
aI3833
aI79
aI3364
aI4862
aI227
aI818
aI1479
aI1789
aI1836
aI2962
aI3370
aI3669
aI2256
aI2965
aI471
aI3455
aI4708
aI2888
aI641
aI2912
aI3317
aI774
aI1156
aI2887
aI3783
aI3325
aI1583
aI1898
aI2088
aI1545
aI1520
aI2249
aI4706
aI4732
aI1882
aI4836
aI2559
aI4893
aI329
aI4084
aI2741
aI73
aI1320
aI1718
aI3528
aI3351
aI3607
aI4034
aI2053
aI3938
aI2147
aI2481
aI2555
aI3103
aI3796
aI441
aI2102
aI123
aI453
aI1938
aI1158
aI2460
aI474
aI193
aI70
aI612
aI2717
aI1294
aI4871
aI1675
aI2996
aI3245
aI297
aI1686
aI3747
aI3748
aI2641
aI1524
aI1444
aI2616
aI1707
aI3360
aI785
aI2349
aI3752
aI143
aI4443
aI1682
aI4692
aI2344
aI4614
aI2526
aI2589
aI3322
aI4550
aI4446
aI3738
aI4439
aI3525
aI3696
aI1067
aI1563
aI147
aI1055
aI1815
aI3024
aI3201
aI434
aI1999
aI4622
aI1199
aI2355
aI3328
aI2651
aI405
aI196
aI2688
aI2689
aI4502
aI4782
aI1776
aI563
aI3753
aI81
aI1110
aI3954
aI2783
aI4065
aI4326
aI1187
aI1261
aI1627
aI3118
aI3119
aI3604
aI4940
aI4833
aI4926
aI22
aI2471
aI3997
aI1003
aI330
aI4686
aI202
aI1129
aI4015
aI3319
aI1439
aI3955
aI226
aI817
aI2316
aI1203
aI3631
aI956
aI1870
aI2006
aI1846
aI786
aI1082
aI3483
aI1405
aI780
aI4479
aI2185
aI1657
aI2925
aI3048
aI3168
aI3474
aI4035
aI1346
aI2659
aI1247
aI4669
aI264
aI281
aI457
aI1307
aI451
aI3834
aI2677
aI2214
aI4925
aI1833
aI825
aI564
aI4170
aI1685
aI3585
aI2864
aI4006
aI4587
aI4641
aI318
aI2332
aI4882
aI1881
aI1960
aI321
aI3463
aI4613
aI1290
aI3901
aI342
aI96
aI4746
aI4473
aI3797
aI2804
aI610
aI3137
aI3454
aI4670
aI1848
aI3959
aI2497
aI2109
aI1647
aI1799
aI1296
aI4253
aI1871
aI1221
aI3433
aI4864
aI803
aI3313
aI4556
aI3883
aI112
aI1711
aI4111
aI2625
aI2626
aI1760
aI1135
aI252
aI1283
aI170
aI1710
aI4488
aI4679
aI1683
aI4016
aI4051
aI4130
aI4650
aI1124
aI2976
aI1471
aI4929
aI3890
aI3329
aI511
aI523
aI2197
aI1803
aI2287
aI1585
aI1200
aI4817
aI4597
aI680
aI1689
aI3686
aI496
aI3318
aI582
aI1344
aI4442
aI4845
aI206
aI2634
aI2372
aI1617
aI1700
aI1642
aI1714
aI3247
aI3599
aI1756
aI4631
aI3771
aI2342
aI2362
aI4867
aI2298
aI3344
aI3444
aI2672
aI58
aI3003
aI718
aI4166
aI2163
aI2348
aI3667
aI174
aI4675
aI2157
aI76
aI4852
aI2461
aI3600
aI3999
aI307
aI1924
aI4067
aI4572
aI114
aI2691
aI4451
aI4452
aI4453
aI4456
aI2040
aI2087
aI2593
aI3971
aI3423
aI811
aI4423
aI2416
aI3233
aI3608
aI4510
aI4107
aI1202
aI1526
aI2265
aI2942
aI767
aI773
aI1345
aI4661
aI3208
aI1053
aI1787
aI4660
aI4238
aI4259
aI4516
aI4441
aI1026
aI1433
aI2356
aI1194
aI66
aI2327
aI3807
aI524
aI525
aI4285
aI411
aI2001
aI4497
aI467
aI1336
aI3653
aI4937
aI3389
aI4578
aI4005
aI1564
aI4905
aI153
aI3301
aI4421
aI2266
aI2894
aI2218
aI1692
aI3962
aI2679
aI1621
aI1713
aI2378
aI199
aI1674
aI4250
aI1771
aI1384
aI4134
aI2950
aI2678
aI2714
aI1251
aI3395
aI1839
aI4094
aI1382
aI2330
aI1034
aI2310
aI3621
aI694
aI1252
aI3626
aI4916
aI678
aI3778
aI565
aI566
aI1036
aI1663
aI4899
aI3554
aI2305
aI2425
aI2599
aI130
aI3358
aI4606
aI2409
aI2284
aI32
aI1794
aI4892
aI4932
aI4933
aI810
aI2292
aI4912
aI2136
aI2541
aI4895
aI4448
aI942
aI4306
aI1786
aI2033
aI288
aI59
aI1104
aI16
aI17
aI1741
aI238
aI3366
aI201
aI686
aI3872
aI2408
aI3759
aI4904
aI3534
aI4737
aI4742
aI2388
aI676
aI2083
aI617
aI1959
aI548
aI1119
aI2030
aI1797
aI955
aI4484
aI1303
aI1245
aI1426
aI4290
aI298
aI3515
aI2832
aI854
aI2787
aI4571
aI2335
aI1964
aI1702
aI4498
aI2285
aI2472
aI4756
aI4783
aI2015
aI4110
aI1732
aI4729
aI1651
aI764
aI4432
aI2923
aI1723
aI3821
aI1715
aI1773
aI1141
aI1509
aI1597
aI3957
aI2286
aI4237
aI3902
aI2337
aI738
aI3216
aI1575
aI3403
aI3488
aI2587
aI4856
aI1197
aI2727
aI1447
aI3917
aI1272
aI1311
aI2282
aI3772
aI2738
aI214
aI2743
aI679
aI2550
aI4003
aI2034
aI1013
aI3793
aI4507
aI618
aI124
aI1613
aI4527
aI1918
aI574
aI2566
aI4642
aI4796
aI2771
aI1419
aI2957
aI1366
aI545
aI4788
aI133
aI4709
aI1378
aI4593
aI1948
aI395
aI899
aI1517
aI248
aI3861
aI1929
aI3419
aI1237
aI2379
aI1572
aI466
aI4136
aI1903
aI2715
aI984
aI1878
aI1161
aI2468
aI3903
aI1862
aI1643
aI485
aI2991
aI429
aI52
aI1926
aI1116
aI4870
aI833
aI2011
aI1596
aI1997
aI3843
aI2980
aI1449
aI1227
aI1228
aI2193
aI1631
aI325
aI4771
aI1406
aI2483
aI1658
aI1907
aI2484
aI4723
aI3489
aI4655
aI319
aI539
aI3014
aI934
aI2203
aI4525
aI2212
aI1140
aI104
aI4748
aI2130
aI1691
aI1565
aI1902
aI4763
aI4292
aI4293
aI4294
aI4793
aI3539
aI4789
aI1093
aI2545
aI3353
aI790
aI465
aI4877
aI4445
aI2413
aI3610
aI41
aI1962
aI1660
aI1669
aI4602
aI752
aI4772
aI3881
aI970
aI1218
aI334
aI737
aI1215
aI4673
aI1456
aI1457
aI973
aI2073
aI137
aI4676
aI4008
aI3314
aI4152
aI3627
aI1455
aI1807
aI3931
aI4693
aI346
aI4567
aI1182
aI1286
aI1953
aI1021
aI1622
aI581
aI2128
aI4830
aI4582
aI2221
aI979
aI1392
aI1822
aI4740
aI4745
aI97
aI1440
aI2241
aI4029
aI1904
aI3398
aI3550
aI4891
aI1172
aI2181
aI230
aI1493
aI1697
aI1980
aI4487
aI2229
aI3049
aI2450
aI2215
aI225
aI1239
aI4517
aI725
aI142
aI1845
aI2948
aI189
aI4828
aI383
aI336
aI4154
aI829
aI2737
aI2953
aI2770
aI134
aI1806
aI2154
aI3394
aI4663
aI4677
aI3283
aI482
aI712
aI3019
aI3503
aI3527
aI2080
aI991
aI1811
aI2387
aI3668
aI4696
aI4144
aI3334
aI4212
aI1755
aI192
aI3349
aI1576
aI4752
aI1012
aI3332
aI2210
aI2211
aI2396
aI2627
aI3808
aI1364
aI964
aI3663
aI1249
aI337
aI1385
aI1749
aI4633
aI3775
aI1742
aI4844
aI2834
aI2835
aI2836
aI1817
aI144
aI1983
aI3132
aI583
aI961
aI2085
aI951
aI1800
aI2955
aI3296
aI1574
aI2434
aI2417
aI311
aI1256
aI1126
aI3542
aI1096
aI1102
aI940
aI1246
aI1325
aI1333
aI3428
aI4760
aI4777
aI4803
aI4804
aI4145
aI3812
aI2977
aI3404
aI3918
aI2155
aI3904
aI4636
aI632
aI3622
aI2374
aI3204
aI1823
aI1605
aI4160
aI2608
aI4888
aI2648
aI2299
aI2300
aI1369
aI697
aI585
aI3217
aI3218
aI1831
aI3327
aI708
aI2354
aI2314
aI2152
aI3779
aI2333
aI4222
aI291
aI3449
aI228
aI1214
aI1570
aI2177
aI3723
aI3993
aI936
aI4096
aI3286
aI1386
aI619
aI3450
aI4024
aI4202
aI1966
aI4853
aI1132
aI3335
aI3897
aI634
aI2216
aI1348
aI820
aI1972
aI3858
aI800
aI1350
aI3678
aI3729
aI5
aI1790
aI208
aI1636
aI1694
aI1630
aI633
aI4300
aI1198
aI3925
aI4325
aI475
aI3356
aI3983
aI4019
aI822
aI287
aI3866
aI106
aI2014
aI1857
aI2611
aI2331
aI3823
aI1620
aI3722
aI1204
aI4028
aI1299
aI1488
aI965
aI2562
aI1767
aI3811
aI1496
aI1213
aI3248
aI3755
aI4251
aI1653
aI1722
aI3
aI448
aI1637
aI1672
aI1737
aI3367
aI3566
aI3602
aI3819
aI3852
aI4511
aI4808
aI4809
aI4931
aI2610
aI1677
aI4865
aI3583
aI592
aI3560
aI557
aI4543
aI2692
aI140
aI1506
aI4183
aI4226
aI4608
aI2574
aI4496
aI215
aI4030
aI856
aI2974
aI2821
aI2823
aI590
aI591
aI1288
aI2474
aI1269
aI2291
aI1275
aI1832
aI2365
aI2062
aI4020
aI2966
aI4832
asS'hkpr_apprx'
p3
(lp4
I1188
aI1234
aI1117
aI2124
aI1448
aI2125
aI1462
aI1347
aI1447
aI1856
aI2000
aI1279
aI2012
aI1599
aI1460
aI1855
aI1951
aI1953
aI1435
aI1147
aI1339
aI1584
aI2079
aI1341
aI1679
aI1309
aI2066
aI1312
aI2070
aI2122
aI2184
aI2195
aI1340
aI1094
aI2189
aI2073
aI1311
aI2090
aI2107
aI2150
aI1842
aI1177
aI2084
aI2055
aI2134
aI1920
aI488
aI1461
aI1446
aI2101
aI1164
aI1489
aI1540
aI2077
aI1089
aI1093
aI2120
aI1101
aI1717
aI2185
aI1169
aI2198
aI1865
aI1467
aI1589
aI2139
aI2085
aI1095
aI1817
aI1276
aI2061
aI1556
aI2121
aI1171
aI1814
aI1436
aI1463
aI1152
aI2138
aI2140
aI1209
aI1316
aI2137
aI1466
aI1278
aI1170
asS'hkpr_exact'
p5
(lp6
I1460
aI1953
aI1584
aI1309
aI1461
aI1311
aI1446
aI1104
aI1095
aI1117
aI1489
aI1447
aI1530
aI1170
aI1356
aI2101
aI2107
aI1842
aI2137
aI2192
aI1951
aI1276
aI2159
aI2096
aI1093
aI1435
aI1386
aI1589
aI1100
aI1463
aI2083
aI2073
aI1278
aI2084
aI2085
aI2082
aI1466
aI2066
aI2140
aI1467
aI2191
aI1164
aI1083
aI1089
aI1436
aI1855
aI2012
aI1347
aI1177
aI1599
aI2000
aI2071
aI2190
aI1189
aI1234
aI1352
aI1151
aI1416
aI1094
aI2150
aI1484
aI1166
aI1817
aI2139
aI1462
aI1147
aI1403
aI1173
aI2134
aI2090
aI1201
aI2094
aI2123
aI2144
aI2055
aI2072
aI2108
aI2074
aI1159
aI2070
aI2122
aI1206
aI2081
aI2105
aI2095
aI2079
aI2056
aI1279
aI2143
aI2187
aI2186
aI2061
aI2121
aI1340
aI1209
aI1339
aI1531
aI1316
aI2077
aI1148
aI1556
aI1856
aI1312
aI2157
aI2091
aI2195
aI2138
aI1506
aI1753
aI1361
aI2135
aI1468
aI2120
aI1210
aI1371
aI1321
aI1101
aI1277
aI1140
aI2145
aI1865
aI1717
aI1335
aI1448
aI2149
aI1334
aI1175
aI1387
aI1415
aI1357
aI1679
aI2156
aI1341
aI1505
aI1473
aI2124
aI2125
aI2184
aI1471
aI1195
aI1536
aI1158
aI1649
aI1954
aI2189
aI1540
aI1178
aI1152
aI1359
aI2136
aI1844
aI1522
aI1908
aI2185
aI1541
aI1412
aI1183
aI2064
aI2063
aI2062
aI1134
aI1091
aI2179
aI488
aI1747
aI1109
aI1090
aI1706
aI1752
aI2007
aI1614
aI1360
aI1165
aI1558
aI1521
aI1310
aI1654
aI1167
aI1452
aI1814
aI1272
aI2176
aI1883
aI2203
aI1486
aI2171
aI2172
aI284
aI2036
aI1295
aI1503
aI1487
aI285
aI1495
aI1474
aI2165
aI2166
aI2076
aI2201
aI2168
aI2170
aI2169
aI2131
aI1284
aI1920
aI1188
aI1233
aI1363
aI1060
aI1142
aI1999
aI2173
aI313
aI1439
aI1444
aI2200
aI1171
aI1169
aI1897
aI1345
aI1887
aI2103
aI316
aI1207
aI1244
aI1485
aI1687
aI1950
aI1074
aI1245
aI1678
aI1194
aI1681
aI2188
aI2199
aI2037
aI1520
aI1265
aI1588
aI1075
aI1587
aI1928
aI1098
aI1867
aI1874
aI1333
aI305
aI2044
aI1322
aI242
aI1087
aI1846
aI1748
aI1464
aI1465
aI1507
aI280
aI1644
aI249
aI1705
aI1557
aI1919
aI1719
aI2198
aI2204
aI1620
aI1332
aI1458
aI1218
aI1319
aI1085
aI1413
aI1069
aI1712
aI1224
aI1516
aI1524
aI2180
aI1478
aI1904
aI1370
aI1929
aI1526
aI1438
aI1849
aI1675
aI282
aI1450
aI295
aI302
aI279
aI1425
aI306
aI1853
aI1440
aI1905
aI257
aI1390
aI1391
aI1684
aI299
aI1770
aI2202
aI1512
aI1586
aI1380
aI1542
aI298
aI2183
aI1777
aI2003
aI1533
aI1515
aI1076
aI1702
aI1940
aI1119
aI1362
aI1346
aI1525
aI1646
aI1353
aI1306
aI1893
aI1445
aI1864
aI1502
aI1528
aI1211
aI1212
aI2178
aI1326
aI1917
aI274
aI1078
aI255
aI1106
aI2042
aI1070
aI246
aI2132
aI1267
aI1108
aI1217
aI1757
aI1496
aI353
aI1775
aI2015
aI1063
aI1700
aI1617
aI1088
aI1411
aI2010
aI1273
aI1235
aI1952
aI1146
aI2177
aI1610
aI1086
aI2193
aI360
aI1313
aI1061
aI1062
aI254
aI1400
aI2017
aI1213
aI1414
aI1895
aI1650
aI1527
aI1619
aI1300
aI355
aI1765
aI1365
aI1875
aI1519
aI1818
aI1564
aI1811
aI1682
aI2068
aI1320
aI362
aI1938
aI1866
aI1989
aI1274
aI1367
aI240
aI1569
aI1834
aI1926
aI296
aI311
aI2002
aI1616
aI1788
aI2045
aI1626
aI1419
aI1369
aI1847
aI1459
aI2020
aI1368
aI2035
aI1677
aI378
aI1237
aI258
aI1882
aI1358
aI337
aI1229
aI2016
aI335
aI312
aI1959
aI1673
aI2167
aI2027
aI1389
aI1251
aI342
aI1301
aI1761
aI1378
aI2030
aI330
aI1186
aI1337
aI1909
aI1943
aI1141
aI1396
aI1868
aI1097
aI2008
aI315
aI1429
aI1348
aI1065
aI1247
aI1735
aI1342
aI1176
aI1385
aI247
aI1807
aI260
aI351
aI2026
aI1973
aI1116
aI1384
aI1257
aI1268
aI327
aI1630
aI1373
aI310
aI314
aI1269
aI336
aI1080
aI1538
aI1539
aI1366
aI1513
aI1289
aI1631
aI1990
aI1566
aI1401
aI252
aI1294
aI1323
aI278
aI1475
aI1181
aI4435
aI1168
aI1107
aI366
aI1729
aI352
aI1099
aI1252
aI1903
aI239
aI1894
aI1197
aI261
aI1216
aI303
aI1835
aI1933
aI1223
aI1351
aI1488
aI329
aI365
aI1612
aI1160
aI1577
aI1243
aI1632
aI334
aI1499
aI1936
aI1472
aI1433
aI1205
aI361
aI1949
aI1559
aI2019
aI1997
aI402
aI4439
aI332
aI1451
aI4441
aI1713
aI354
aI1066
aI1490
aI1220
aI1304
aI2164
aI262
aI1975
aI1128
aI1286
aI1504
aI1676
aI1236
aI250
aI1254
aI350
aI1723
aI1514
aI1420
aI1906
aI1344
aI1776
aI1222
aI1318
aI1296
aI292
aI1836
aI1624
aI1410
aI1379
aI1349
aI1255
aI357
aI2050
aI4436
aI1172
aI2181
aI1800
aI4442
aI309
aI1096
aI325
aI1442
aI4421
aI2112
aI1136
aI4437
aI2046
aI2075
aI1613
aI1253
aI1663
aI1827
aI1449
aI1343
aI1327
aI381
aI318
aI1529
aI2163
aI2047
aI1902
aI1082
aI241
aI1081
aI269
aI2004
aI1628
aI1092
aI368
aI251
aI1204
aI1428
aI1884
aI259
aI1430
aI1470
aI1738
aI1388
aI2086
aI356
aI1625
aI1809
aI326
aI1198
aI371
aI1552
aI290
aI1731
aI1394
aI1535
aI1196
aI1193
aI1939
aI277
aI1656
aI1655
aI1157
aI343
aI1399
aI1408
aI1123
aI411
aI1618
aI1199
aI1364
aI1124
aI1409
aI1751
aI344
aI345
aI2069
aI1694
aI1426
aI1914
aI1118
aI1432
aI1331
aI1511
aI1688
aI1885
aI253
aI243
aI435
aI244
aI1810
aI1965
aI238
aI1825
aI1290
aI1749
aI1925
aI333
aI1604
aI1852
aI1120
aI1956
aI1105
aI1634
aI1395
aI1695
aI1297
aI1570
aI2092
aI1455
aI1271
aI1418
aI317
aI1242
aI1962
aI1240
aI1762
aI4426
aI1372
aI1639
aI1843
aI1231
aI1824
aI1736
aI1084
aI2151
aI1627
aI1781
aI1498
aI1154
aI2005
aI2126
aI1111
aI1510
aI1945
aI1453
aI1454
aI2009
aI1325
aI276
aI1497
aI1431
aI1072
aI1901
aI811
aI283
aI1422
aI2018
aI1256
aI1664
aI1126
aI338
aI1560
aI1993
aI1636
aI2109
aI1156
aI4431
aI272
aI319
aI1424
aI1968
aI2104
aI287
aI2194
aI1285
aI1500
aI1674
aI1859
aI1579
aI2119
aI1798
aI1930
aI1900
aI1648
aI1374
aI1427
aI2113
aI1102
aI1547
aI304
aI307
aI1660
aI1143
aI1622
aI2141
aI1961
aI800
aI2098
aI1983
aI1806
aI1127
aI340
aI2097
aI364
aI363
aI1876
aI1508
aI1202
aI1324
aI1892
aI1937
aI267
aI2128
aI1607
aI301
aI264
aI281
aI1230
aI1609
aI1783
aI1137
aI1203
aI793
aI1308
aI1200
aI1629
aI1593
aI1480
aI1964
aI369
aI266
aI1732
aI2129
aI1600
aI1994
aI1725
aI1782
aI248
aI1891
aI1995
aI1492
aI1707
aI1623
aI1773
aI2111
aI1350
aI2182
aI1605
aI1992
aI1863
aI1941
aI422
aI1144
aI1258
aI1594
aI308
aI1437
aI1406
aI1263
aI2021
aI1829
aI1942
aI1336
aI2034
aI1161
aI377
aI822
aI1477
aI370
aI1067
aI1647
aI1799
aI1980
aI1934
aI1073
aI1317
aI346
aI1935
aI2130
aI1305
aI1225
aI1734
aI1727
aI1260
aI1822
aI1064
aI744
aI1135
aI1576
aI1402
aI1288
aI245
aI1924
aI4432
aI4443
aI1598
aI2118
aI1662
aI1633
aI1133
aI1554
aI1778
aI1131
aI2089
aI1871
aI392
aI1291
aI1079
aI1715
aI1491
aI4422
aI1250
aI1877
aI4427
aI328
aI379
aI780
aI1821
aI1280
aI804
aI256
aI439
aI293
aI2054
aI1923
aI1728
aI1249
aI1699
aI2022
aI1944
aI1881
aI4428
aI1801
aI743
aI1823
aI1130
aI1571
aI1602
aI1567
aI1568
aI1850
aI1443
aI1155
aI1293
aI1922
aI375
aI1763
aI1191
aI1383
aI1132
aI1869
aI1338
aI373
aI1456
aI1457
aI758
aI1932
aI2114
aI1103
aI1996
aI1292
aI1969
aI2067
aI1963
aI1215
aI1760
aI2001
aI1580
aI431
aI1281
aI803
aI795
aI1501
aI297
aI289
aI1114
aI2049
aI1690
aI341
aI1068
aI1837
aI1145
aI1820
aI1661
aI461
aI1795
aI359
aI1967
aI1726
aI2029
aI2117
aI322
aI1303
aI1112
aI1266
aI1270
aI1830
aI1523
aI1115
aI2080
aI1382
aI1221
aI4430
aI374
aI4425
aI2106
aI1911
aI1981
aI1977
aI1828
aI1354
aI1755
aI1110
aI2110
aI1831
aI1192
aI2153
aI762
aI1601
aI291
aI367
aI436
aI405
aI1581
aI1691
aI1441
aI286
aI1987
aI438
aI1873
aI1709
aI1377
aI1838
aI1476
aI358
aI324
aI1872
aI4362
aI1786
aI275
aI270
aI273
aI271
aI1423
aI1582
aI339
aI391
aI757
aI1583
aI1573
aI1307
aI1703
aI4433
aI372
aI1698
aI2099
aI783
aI1494
aI1710
aI1574
aI1721
aI1551
aI348
aI347
aI2133
aI268
aI1208
aI1298
aI1549
aI1330
aI1848
aI4352
aI2031
aI1779
aI1879
aI1794
aI1974
aI1226
aI1819
aI1685
aI2102
aI1637
aI1737
aI1982
aI1227
aI1228
aI1860
aI772
aI2146
aI1329
aI1813
aI288
aI809
aI2065
aI4438
aI1686
aI382
aI4440
aI1652
aI472
aI4392
aI1803
aI1643
aI331
aI2148
aI410
aI1113
aI1774
aI1986
aI4363
aI2011
aI1948
aI1861
aI1666
aI1214
aI1971
aI1479
aI1493
aI1759
aI1392
aI1239
aI349
aI4384
aI2197
aI1561
aI4423
aI1287
aI1077
aI1262
aI1746
aI1376
aI1966
aI742
aI1261
aI1603
aI1283
aI1680
aI2043
aI4374
aI1692
aI1758
aI1802
aI4434
aI1916
aI1264
aI794
aI1434
aI300
aI1621
aI4420
aI1667
aI1139
aI1138
aI1537
aI1955
aI789
aI1970
aI1219
aI1555
aI1565
aI808
aI2116
aI2051
aI759
aI1927
aI1405
aI1328
aI791
aI1509
aI815
aI1750
aI1683
aI1608
aI1550
aI740
aI1548
aI320
aI1635
aI813
aI812
aI4424
aI1180
aI1381
aI4429
aI1841
aI1299
aI779
aI1543
aI1190
aI1756
aI1745
aI1591
aI2154
aI1918
aI1722
aI1314
aI1150
aI1972
aI2087
aI376
aI1153
aI1397
aI2155
aI1880
aI771
aI2175
aI1585
aI2115
aI1275
aI1611
aI473
aI763
aI1393
aI321
aI2053
aI1978
aI1780
aI1657
aI2196
aI2014
aI1730
aI2060
aI434
aI2127
aI1689
aI412
aI750
aI1898
aI2088
aI432
aI748
aI1913
aI1129
aI4402
aI1248
aI458
aI1832
aI1469
aI1638
aI1187
aI457
aI425
aI760
aI4401
aI2557
aI4381
aI1544
aI1886
aI430
aI4376
aI2006
aI1784
aI1122
aI1653
aI1796
aI754
aI2594
aI778
aI426
aI394
aI4332
aI810
aI1744
aI814
aI1816
aI1870
aI1125
aI777
aI1764
aI403
aI401
aI1708
aI1259
aI4345
aI413
aI406
aI1534
aI1979
aI1797
aI787
aI1162
aI1532
aI1282
aI1597
aI1812
aI1246
aI1179
aI4413
aI1651
aI1163
aI1733
aI1071
aI2158
aI416
aI801
aI1701
aI1976
aI1724
aI4367
aI1232
aI409
aI1185
aI1704
aI1562
aI1670
aI1839
aI823
aI824
aI764
aI2032
aI792
aI1815
aI1483
aI1592
aI4344
aI380
aI1991
aI442
aI1421
aI4408
aI774
aI1407
aI1182
aI2052
aI739
aI2023
aI1375
aI265
aI323
aI4342
aI460
aI1575
aI4341
aI2057
aI4370
aI4369
aI1149
aI1907
aI1315
aI2519
aI1858
aI1693
aI294
aI1718
aI1912
aI2038
aI802
aI2058
aI1398
aI1910
aI1238
aI1772
aI1754
aI441
aI1696
aI2028
aI2593
aI1984
aI1931
aI4415
aI770
aI1998
aI2041
aI427
aI1658
aI4404
aI1302
aI2558
aI4336
aI799
aI2909
aI786
aI4368
aI4398
aI1899
aI819
aI4347
aI1805
aI1878
aI2039
aI749
aI756
aI1563
aI1826
aI263
aI1988
aI4373
aI1785
aI424
aI2282
aI4395
aI4346
aI1404
aI1789
aI4386
aI1947
aI2142
aI781
aI1659
aI1740
aI423
aI796
aI2459
aI4361
aI1615
aI1572
aI4335
aI1671
aI1890
aI2605
aI4327
aI776
aI2147
aI766
aI807
aI1668
aI1921
aI471
aI4934
aI1739
aI1808
aI1553
aI1771
aI1840
aI2414
aI469
aI2033
aI1915
aI1767
aI1355
aI1595
aI383
aI1546
aI1946
aI1769
aI1669
aI2100
aI443
aI1714
aI4410
aI4385
aI4391
aI1241
aI2606
aI396
aI820
aI2417
aI741
aI746
aI1833
aI817
aI2207
aI1766
aI782
aI433
aI1665
aI1417
aI464
aI1545
aI1851
aI1716
aI2532
aI468
aI2475
aI1640
aI1697
aI1642
aI818
aI1862
aI1845
aI1804
aI384
aI1857
aI2040
aI1742
aI805
aI745
aI1790
aI785
aI4359
aI2458
aI2174
aI4928
aI4372
aI404
aI2048
aI414
aI4365
aI2612
aI1960
aI390
aI1958
aI1787
aI4940
aI2213
aI4375
aI4340
aI4357
aI2059
aI2162
aI444
aI1517
aI393
aI1596
aI1896
aI788
aI4939
aI4333
aI420
aI1711
aI1985
aI4933
aI2611
aI447
aI1121
aI768
aI769
aI761
aI395
aI4695
aI816
aI752
aI747
aI784
aI753
aI2212
aI459
aI1672
aI2617
aI790
aI755
aI450
aI798
aI386
aI1957
aI1720
aI2508
aI2516
aI2599
aI2425
aI4932
aI821
aI2093
aI4383
aI2078
aI2013
aI1889
aI1590
aI1793
aI2304
aI1518
aI765
aI806
aI1854
aI4364
aI2474
aI2528
aI455
aI2413
aI2618
aI466
aI4396
aI1768
aI2591
aI4930
aI4337
aI2569
aI2572
aI2283
aI2953
aI4371
aI2704
aI1888
aI773
aI767
aI1741
aI4929
aI452
aI4935
aI454
aI2607
aI4343
aI2604
aI2160
aI1641
aI3985
aI2480
aI2161
aI4354
aI4938
aI2567
aI775
aI751
aI2896
aI428
aI3987
aI440
aI4378
aI1743
aI797
aI2502
aI4927
aI421
aI462
aI2025
aI429
aI2910
aI2479
aI4377
aI2372
aI1578
aI388
aI4937
aI2354
aI1174
aI4416
aI1645
aI419
aI2503
aI2565
aI4411
aI2941
aI2457
aI408
aI2284
aI417
aI2974
aI4399
aI2608
aI3289
aI3288
aI2221
aI2898
aI2666
aI2895
aI2899
aI2559
aI2447
aI4417
aI4407
aI2266
aI0
aI2407
aI4380
aI4694
aI2549
aI4331
aI2210
aI2211
aI2575
aI4353
aI2205
aI4400
aI2279
aI4355
aI2703
aI470
aI2321
aI3966
aI2897
aI2223
aI4366
aI456
aI2393
aI2392
aI4078
aI4330
aI445
aI415
aI2439
aI451
aI2677
aI1184
aI2274
aI2960
aI4409
aI4358
aI4406
aI4419
aI2152
aI2787
aI2814
aI2538
aI4360
aI2272
aI446
aI2302
aI2553
aI2543
aI2336
aI4418
aI2893
aI4351
aI2281
aI2231
aI2959
aI4387
aI2539
aI2405
aI4405
aI2285
aI4349
aI2977
aI4936
aI4328
aI2650
aI2545
aI2967
aI3012
aI2586
aI4414
aI2602
aI2487
aI4412
aI2781
aI449
aI3954
aI3973
aI2552
aI4329
aI4588
aI2645
aI3986
aI2554
aI2486
aI2493
aI2444
aI2507
aI2517
aI2613
aI2518
aI2598
aI2424
aI2222
aI4382
aI389
aI2361
aI2522
aI4403
aI4334
aI2374
aI2647
aI2257
aI1606
aI2476
aI2477
aI2956
aI2456
aI2434
aI3188
aI4041
aI3984
aI437
aI4397
aI2264
aI2394
aI2662
aI2483
aI2585
aI2464
aI2793
aI2334
aI2375
aI2954
aI4060
aI4931
aI3
aI4338
aI2804
aI2627
aI4693
aI2983
aI3103
aI2817
aI2504
aI2568
aI2571
aI2788
aI2573
aI2609
aI2307
aI490
aI2446
aI2780
aI465
aI3995
aI2275
aI2473
aI453
aI2482
aI2299
aI2300
aI2378
aI2671
aI2566
aI2570
aI3004
aI2525
aI2527
aI2711
aI2233
aI2894
aI418
aI2489
aI2551
aI2955
aI2286
aI3023
aI2654
aI2555
aI2481
aI2024
aI2936
aI463
aI2550
aI2445
aI2846
aI3128
aI1792
aI1791
aI2521
aI467
aI2632
aI2561
aI2357
aI2851
aI2544
aI3011
aI2235
aI2648
aI2254
aI3016
aI4065
aI2382
aI4339
aI2501
aI2596
aI2794
aI2733
aI2886
aI2330
aI3217
aI3218
aI2852
aI2643
aI400
aI398
aI397
aI399
aI2957
aI2880
aI2709
aI2523
aI2443
aI2229
aI2574
aI3170
aI2819
aI2387
aI2975
aI2280
aI2386
aI2614
aI4540
aI2745
aI2996
aI3245
aI2287
aI2885
aI2379
aI2685
aI3291
aI3290
aI4393
aI2463
aI2331
aI2485
aI4064
aI2317
aI4389
aI4390
aI4348
aI3219
aI2409
aI4356
aI2696
aI2973
aI2687
aI2542
aI2963
aI2301
aI2697
aI2239
aI4692
aI4394
aI2644
aI385
aI387
aI3009
aI3272
aI2376
aI2249
aI2560
aI4063
aI2383
aI2548
aI3001
aI2588
aI2601
aI2918
aI2367
aI2303
aI2577
aI2724
aI2743
aI2722
aI3186
aI2837
aI2842
aI4062
aI3267
aI2649
aI3189
aI2838
aI4487
aI2813
aI2454
aI3974
aI4077
aI2796
aI2347
aI2908
aI2771
aI2653
aI2455
aI2676
aI2224
aI3094
aI2839
aI2509
aI4792
aI2944
aI2991
aI4061
aI407
aI2631
aI4660
aI2529
aI2961
aI2881
aI4388
aI2694
aI4059
aI2818
aI2603
aI2232
aI2295
aI2293
aI2314
aI2832
aI3235
aI3232
aI2355
aI2883
aI2727
aI2686
aI2429
aI2637
aI2492
aI4379
aI2642
aI2717
aI4788
aI2273
aI3197
aI2563
aI4350
aI2692
aI2505
aI2700
aI3263
aI2346
aI3284
aI2646
aI2914
aI3283
aI3063
aI3148
aI3109
aI2616
aI2624
aI2968
aI4066
aI2970
aI2305
aI2815
aI2874
aI2370
aI2263
aI2348
aI2403
aI2623
aI2843
aI2402
aI4793
aI3292
aI448
aI3947
aI2218
aI2408
aI2499
aI2247
aI3204
aI2449
aI2641
aI4703
aI2356
aI2530
aI3276
aI2779
aI2857
aI2651
aI2472
aI2674
aI3014
aI2242
aI3003
aI3129
aI2917
aI2856
aI2855
aI2256
aI2889
aI2878
aI2388
aI2806
aI3226
aI3227
aI2964
aI2979
aI2740
aI3156
aI4040
aI2978
aI2298
aI2488
aI2325
aI2882
aI2316
aI4486
aI2584
aI2760
aI2418
aI2327
aI2736
aI2597
aI3117
aI2932
aI2262
aI2452
aI3187
aI2337
aI2428
aI2338
aI2391
aI2981
aI3000
aI4484
aI2971
aI2860
aI2862
aI2858
aI2930
aI2468
aI2800
aI3173
aI2578
aI2805
aI2799
aI2782
aI2215
aI3017
aI3060
aI2328
aI2288
aI2576
aI2404
aI2319
aI3206
aI2783
aI2320
aI2790
aI2656
aI2225
aI2962
aI2349
aI4030
aI2657
aI2533
aI2461
aI3047
aI2620
aI2216
aI2710
aI2313
aI3105
aI2884
aI2943
aI2693
aI2436
aI2630
aI2310
aI2371
aI3121
aI3161
aI2217
aI2524
aI4219
aI4606
aI3266
aI3143
aI2923
aI2980
aI3049
aI2786
aI2583
aI2345
aI2976
aI2871
aI2870
aI2872
aI3154
aI2592
aI2916
aI2801
aI2655
aI2469
aI2359
aI3242
aI3243
aI2335
aI3019
aI3115
aI2600
aI2708
aI2807
aI2737
aI2411
aI2920
aI3183
aI3041
aI3152
aI4547
aI3002
aI2350
aI3200
aI2715
aI2791
aI2227
aI4688
aI2230
aI2952
aI2309
aI2937
aI2448
aI3203
aI2712
aI2713
aI2723
aI2986
aI2778
aI2668
aI3040
aI3131
aI2366
aI2798
aI3018
aI3213
aI4493
aI2840
aI3015
aI3026
aI2672
aI2590
aI4071
aI3134
aI3270
aI3133
aI2278
aI4497
aI3126
aI3130
aI2484
aI2633
aI2866
aI3010
aI2792
aI2969
aI3104
aI3108
aI3064
aI3123
aI3124
aI2888
aI2789
aI4794
aI4049
aI2500
aI2681
aI2707
aI2972
aI2785
aI2998
aI3230
aI4649
aI3281
aI4506
aI2774
aI4749
aI3127
aI2450
aI2311
aI3096
aI3215
aI2825
aI3030
aI3038
aI2938
aI3286
as.